---
triple:          'arm64-apple-darwin'
binary-path:     a.out
relocations:
  - { offsetInCU: 0x5C, offset: 0x5C, size: 0x8, addend: 0x0, symName: __ZNSt3__1L19piecewise_constructE, symObjAddr: 0x7FB0, symBinAddr: 0x10000BB4C, symSize: 0x0 }
  - { offsetInCU: 0x3148, offset: 0x3148, size: 0x8, addend: 0x0, symName: __ZNSt3__124__put_character_sequenceB7v160006IcNS_11char_traitsIcEEEERNS_13basic_ostreamIT_T0_EES7_PKS4_m, symObjAddr: 0x2F94, symBinAddr: 0x100006824, symSize: 0x1EC }
  - { offsetInCU: 0x3FB0, offset: 0x3FB0, size: 0x8, addend: 0x0, symName: __ZNSt3__17advanceB7v160006INS_15__list_iteratorIiPvEEiivEEvRT_T0_, symObjAddr: 0x1380, symBinAddr: 0x100004C10, symSize: 0x58 }
  - { offsetInCU: 0x41AF, offset: 0x41AF, size: 0x8, addend: 0x0, symName: __ZNSt3__17advanceB7v160006INS_15__list_iteratorIiPvEEllvEEvRT_T0_, symObjAddr: 0x48A8, symBinAddr: 0x100008138, symSize: 0x50 }
  - { offsetInCU: 0x9176, offset: 0x9176, size: 0x8, addend: 0x0, symName: __ZNSt3__1lsB7v160006INS_11char_traitsIcEEEERNS_13basic_ostreamIcT_EES6_PKc, symObjAddr: 0x11DC, symBinAddr: 0x100004A6C, symSize: 0x48 }
  - { offsetInCU: 0x91BC, offset: 0x91BC, size: 0x8, addend: 0x0, symName: __ZNSt3__1neB7v160006ERKNS_15__list_iteratorIiPvEES4_, symObjAddr: 0x127C, symBinAddr: 0x100004B0C, symSize: 0x34 }
  - { offsetInCU: 0x91F9, offset: 0x91F9, size: 0x8, addend: 0x0, symName: __ZNSt3__14endlB7v160006IcNS_11char_traitsIcEEEERNS_13basic_ostreamIT_T0_EES7_, symObjAddr: 0x1328, symBinAddr: 0x100004BB8, symSize: 0x58 }
  - { offsetInCU: 0x9D63, offset: 0x9D63, size: 0x8, addend: 0x0, symName: __ZNSt3__1neB7v160006ERKNS_19__hash_map_iteratorINS_15__hash_iteratorIPNS_11__hash_nodeINS_17__hash_value_typeIiNS_12basic_stringIcNS_11char_traitsIcEENS_9allocatorIcEEEEEEPvEEEEEESH_, symObjAddr: 0x2244, symBinAddr: 0x100005AD4, symSize: 0x30 }
  - { offsetInCU: 0x9DA0, offset: 0x9DA0, size: 0x8, addend: 0x0, symName: __ZNSt3__1lsB7v160006IcNS_11char_traitsIcEENS_9allocatorIcEEEERNS_13basic_ostreamIT_T0_EES9_RKNS_12basic_stringIS6_S7_T1_EE, symObjAddr: 0x22D0, symBinAddr: 0x100005B60, symSize: 0x4C }
  - { offsetInCU: 0x9DF8, offset: 0x9DF8, size: 0x8, addend: 0x0, symName: __ZNSt3__14prevB7v160006INS_15__list_iteratorIiPvEEEENS_9enable_ifIXsr25__is_cpp17_input_iteratorIT_EE5valueES5_E4typeES5_NS_15iterator_traitsIS5_E15difference_typeE, symObjAddr: 0x256C, symBinAddr: 0x100005DFC, symSize: 0x58 }
  - { offsetInCU: 0x9E3B, offset: 0x9E3B, size: 0x8, addend: 0x0, symName: __ZNSt3__118__debug_db_erase_cB7v160006INS_10__list_impIiNS_9allocatorIiEEEEEEvPT_, symObjAddr: 0x28C0, symBinAddr: 0x100006150, symSize: 0x10 }
  - { offsetInCU: 0x9E6C, offset: 0x9E6C, size: 0x8, addend: 0x0, symName: __ZNSt3__125__debug_db_invalidate_allB7v160006INS_10__list_impIiNS_9allocatorIiEEEEEEvPT_, symObjAddr: 0x2A4C, symBinAddr: 0x1000062DC, symSize: 0x10 }
  - { offsetInCU: 0x9ED0, offset: 0x9ED0, size: 0x8, addend: 0x0, symName: __ZNSt3__119__libcpp_deallocateB7v160006EPvmm, symObjAddr: 0x2BBC, symBinAddr: 0x10000644C, symSize: 0x30 }
  - { offsetInCU: 0x9F18, offset: 0x9F18, size: 0x8, addend: 0x0, symName: __ZNSt3__127__do_deallocate_handle_sizeB7v160006IJEEEvPvmDpT_, symObjAddr: 0x2BEC, symBinAddr: 0x10000647C, symSize: 0x28 }
  - { offsetInCU: 0x9F56, offset: 0x9F56, size: 0x8, addend: 0x0, symName: __ZNSt3__124__libcpp_operator_deleteB7v160006IJPvEEEvDpT_, symObjAddr: 0x2C14, symBinAddr: 0x1000064A4, symSize: 0x24 }
  - { offsetInCU: 0x9F8B, offset: 0x9F8B, size: 0x8, addend: 0x0, symName: __ZNSt3__119__debug_db_insert_cB7v160006INS_4listIiNS_9allocatorIiEEEEEEvPT_, symObjAddr: 0x2DC8, symBinAddr: 0x100006658, symSize: 0x10 }
  - { offsetInCU: 0x9FBC, offset: 0x9FBC, size: 0x8, addend: 0x0, symName: __ZNSt3__116__pad_and_outputB7v160006IcNS_11char_traitsIcEEEENS_19ostreambuf_iteratorIT_T0_EES6_PKS4_S8_S8_RNS_8ios_baseES4_, symObjAddr: 0x31D0, symBinAddr: 0x100006A60, symSize: 0x240 }
  - { offsetInCU: 0xA08B, offset: 0xA08B, size: 0x8, addend: 0x0, symName: __ZNSt3__119__debug_db_insert_cB7v160006INS_12basic_stringIcNS_11char_traitsIcEENS_9allocatorIcEEEEEEvPT_, symObjAddr: 0x3684, symBinAddr: 0x100006F14, symSize: 0x10 }
  - { offsetInCU: 0xA0BC, offset: 0xA0BC, size: 0x8, addend: 0x0, symName: __ZNSt3__112__to_addressB7v160006IKcEEPT_S3_, symObjAddr: 0x3750, symBinAddr: 0x100006FE0, symSize: 0x14 }
  - { offsetInCU: 0xA124, offset: 0xA124, size: 0x8, addend: 0x0, symName: __ZNSt3__19use_facetB7v160006INS_5ctypeIcEEEERKT_RKNS_6localeE, symObjAddr: 0x39D0, symBinAddr: 0x100007260, symSize: 0x2C }
  - { offsetInCU: 0xA5F3, offset: 0xA5F3, size: 0x8, addend: 0x0, symName: __ZNSt3__118__constexpr_strlenB7v160006EPKc, symObjAddr: 0x3A68, symBinAddr: 0x1000072F8, symSize: 0x24 }
  - { offsetInCU: 0xA61F, offset: 0xA61F, size: 0x8, addend: 0x0, symName: __ZNSt3__1eqB7v160006ERKNS_15__list_iteratorIiPvEES4_, symObjAddr: 0x3B58, symBinAddr: 0x1000073E8, symSize: 0x30 }
  - { offsetInCU: 0xA65C, offset: 0xA65C, size: 0x8, addend: 0x0, symName: __ZNSt3__121__convert_to_integralB7v160006Ei, symObjAddr: 0x3B88, symBinAddr: 0x100007418, symSize: 0x14 }
  - { offsetInCU: 0xA688, offset: 0xA688, size: 0x8, addend: 0x0, symName: __ZNSt3__19__advanceB7v160006INS_15__list_iteratorIiPvEEEEvRT_NS_15iterator_traitsIS4_E15difference_typeENS_26bidirectional_iterator_tagE, symObjAddr: 0x3B9C, symBinAddr: 0x10000742C, symSize: 0xA4 }
  - { offsetInCU: 0xA6EF, offset: 0xA6EF, size: 0x8, addend: 0x0, symName: __ZNSt3__117__libcpp_allocateB7v160006Emm, symObjAddr: 0x3F68, symBinAddr: 0x1000077F8, symSize: 0x28 }
  - { offsetInCU: 0xA72C, offset: 0xA72C, size: 0x8, addend: 0x0, symName: __ZNSt3__121__libcpp_operator_newB7v160006IJmEEEPvDpT_, symObjAddr: 0x3FA8, symBinAddr: 0x100007838, symSize: 0x24 }
  - { offsetInCU: 0xA7A0, offset: 0xA7A0, size: 0x8, addend: 0x0, symName: __ZNSt3__14nextB7v160006INS_15__list_iteratorIiPvEEEENS_9enable_ifIXsr25__is_cpp17_input_iteratorIT_EE5valueES5_E4typeES5_NS_15iterator_traitsIS5_E15difference_typeE, symObjAddr: 0x4858, symBinAddr: 0x1000080E8, symSize: 0x50 }
  - { offsetInCU: 0xA7E3, offset: 0xA7E3, size: 0x8, addend: 0x0, symName: __ZNSt3__121__convert_to_integralB7v160006El, symObjAddr: 0x48F8, symBinAddr: 0x100008188, symSize: 0x14 }
  - { offsetInCU: 0xA80F, offset: 0xA80F, size: 0x8, addend: 0x0, symName: __ZNSt3__119__debug_db_insert_cB7v160006INS_13unordered_mapIiNS_12basic_stringIcNS_11char_traitsIcEENS_9allocatorIcEEEENS_4hashIiEENS_8equal_toIiEENS5_INS_4pairIKiS7_EEEEEEEEvPT_, symObjAddr: 0x4BDC, symBinAddr: 0x10000846C, symSize: 0x10 }
  - { offsetInCU: 0xA840, offset: 0xA840, size: 0x8, addend: 0x0, symName: __ZNSt3__118__debug_db_erase_cB7v160006INS_12__hash_tableINS_17__hash_value_typeIiNS_12basic_stringIcNS_11char_traitsIcEENS_9allocatorIcEEEEEENS_22__unordered_map_hasherIiS9_NS_4hashIiEENS_8equal_toIiEELb1EEENS_21__unordered_map_equalIiS9_SE_SC_Lb1EEENS6_IS9_EEEEEEvPT_, symObjAddr: 0x5338, symBinAddr: 0x100008BC8, symSize: 0x10 }
  - { offsetInCU: 0xA8DB, offset: 0xA8DB, size: 0x8, addend: 0x0, symName: __ZNSt3__116forward_as_tupleB7v160006IJiEEENS_5tupleIJDpOT_EEES4_, symObjAddr: 0x5C48, symBinAddr: 0x1000094D8, symSize: 0x2C }
  - { offsetInCU: 0xA914, offset: 0xA914, size: 0x8, addend: 0x0, symName: __ZNSt3__116forward_as_tupleB7v160006IJEEENS_5tupleIJDpOT_EEES4_, symObjAddr: 0x5C74, symBinAddr: 0x100009504, symSize: 0x4 }
  - { offsetInCU: 0xA938, offset: 0xA938, size: 0x8, addend: 0x0, symName: __ZNSt3__116__constrain_hashB7v160006Emm, symObjAddr: 0x5D28, symBinAddr: 0x1000095B8, symSize: 0x98 }
  - { offsetInCU: 0xA972, offset: 0xA972, size: 0x8, addend: 0x0, symName: __ZNSt3__13maxB7v160006ImEERKT_S3_S3_, symObjAddr: 0x6048, symBinAddr: 0x1000098D8, symSize: 0x2C }
  - { offsetInCU: 0xA9B5, offset: 0xA9B5, size: 0x8, addend: 0x0, symName: __ZNSt3__116__is_hash_power2B7v160006Em, symObjAddr: 0x6074, symBinAddr: 0x100009904, symSize: 0x50 }
  - { offsetInCU: 0xAA0A, offset: 0xAA0A, size: 0x8, addend: 0x0, symName: __ZNSt3__13getB7v160006ILm0EJOiEEERNS_13tuple_elementIXT_ENS_5tupleIJDpT0_EEEE4typeERS6_, symObjAddr: 0x67F8, symBinAddr: 0x10000A088, symSize: 0x24 }
  - { offsetInCU: 0xAA4D, offset: 0xAA4D, size: 0x8, addend: 0x0, symName: __ZNSt3__116__next_hash_pow2B7v160006Em, symObjAddr: 0x6DF8, symBinAddr: 0x10000A688, symSize: 0x6C }
  - { offsetInCU: 0xAA79, offset: 0xAA79, size: 0x8, addend: 0x0, symName: __ZNSt3__125__debug_db_invalidate_allB7v160006INS_12__hash_tableINS_17__hash_value_typeIiNS_12basic_stringIcNS_11char_traitsIcEENS_9allocatorIcEEEEEENS_22__unordered_map_hasherIiS9_NS_4hashIiEENS_8equal_toIiEELb1EEENS_21__unordered_map_equalIiS9_SE_SC_Lb1EEENS6_IS9_EEEEEEvPT_, symObjAddr: 0x6E64, symBinAddr: 0x10000A6F4, symSize: 0x10 }
  - { offsetInCU: 0xAAAA, offset: 0xAAAA, size: 0x8, addend: 0x0, symName: __ZNSt3__112__libcpp_clzB7v160006Em, symObjAddr: 0x6FCC, symBinAddr: 0x10000A85C, symSize: 0x1C }
  - { offsetInCU: 0xAAD6, offset: 0xAAD6, size: 0x8, addend: 0x0, symName: __ZNSt3__13maxB7v160006ImNS_6__lessImmEEEERKT_S5_S5_T0_, symObjAddr: 0x6FE8, symBinAddr: 0x10000A878, symSize: 0x54 }
  - { offsetInCU: 0xABC2, offset: 0xABC2, size: 0x8, addend: 0x0, symName: __ZNSt3__1neB7v160006ERKNS_15__hash_iteratorIPNS_11__hash_nodeINS_17__hash_value_typeIiNS_12basic_stringIcNS_11char_traitsIcEENS_9allocatorIcEEEEEEPvEEEESF_, symObjAddr: 0x7440, symBinAddr: 0x10000ACD0, symSize: 0x34 }
  - { offsetInCU: 0xABFF, offset: 0xABFF, size: 0x8, addend: 0x0, symName: __ZNSt3__1eqB7v160006ERKNS_15__hash_iteratorIPNS_11__hash_nodeINS_17__hash_value_typeIiNS_12basic_stringIcNS_11char_traitsIcEENS_9allocatorIcEEEEEEPvEEEESF_, symObjAddr: 0x7474, symBinAddr: 0x10000AD04, symSize: 0x30 }
  - { offsetInCU: 0xADFD, offset: 0xADFD, size: 0x8, addend: 0x0, symName: __ZSt28__throw_bad_array_new_lengthB7v160006v, symObjAddr: 0x3F34, symBinAddr: 0x1000077C4, symSize: 0x34 }
  - { offsetInCU: 0xD851, offset: 0xD851, size: 0x8, addend: 0x0, symName: __Z9test_listv, symObjAddr: 0x0, symBinAddr: 0x100003890, symSize: 0x11A0 }
  - { offsetInCU: 0xDF80, offset: 0xDF80, size: 0x8, addend: 0x0, symName: __ZNSt3__14listIiNS_9allocatorIiEEEC1ESt16initializer_listIiE, symObjAddr: 0x11A0, symBinAddr: 0x100004A30, symSize: 0x3C }
  - { offsetInCU: 0xDFBB, offset: 0xDFBB, size: 0x8, addend: 0x0, symName: __ZNSt3__14listIiNS_9allocatorIiEEE5beginB7v160006Ev, symObjAddr: 0x1224, symBinAddr: 0x100004AB4, symSize: 0x2C }
  - { offsetInCU: 0xDFE1, offset: 0xDFE1, size: 0x8, addend: 0x0, symName: __ZNSt3__14listIiNS_9allocatorIiEEE3endB7v160006Ev, symObjAddr: 0x1250, symBinAddr: 0x100004AE0, symSize: 0x2C }
  - { offsetInCU: 0xE007, offset: 0xE007, size: 0x8, addend: 0x0, symName: __ZNKSt3__115__list_iteratorIiPvEdeB7v160006Ev, symObjAddr: 0x12B0, symBinAddr: 0x100004B40, symSize: 0x2C }
  - { offsetInCU: 0xE02D, offset: 0xE02D, size: 0x8, addend: 0x0, symName: __ZNSt3__115__list_iteratorIiPvEppB7v160006Ev, symObjAddr: 0x12DC, symBinAddr: 0x100004B6C, symSize: 0x20 }
  - { offsetInCU: 0xE053, offset: 0xE053, size: 0x8, addend: 0x0, symName: __ZNSt3__113basic_ostreamIcNS_11char_traitsIcEEElsB7v160006EPFRS3_S4_E, symObjAddr: 0x12FC, symBinAddr: 0x100004B8C, symSize: 0x2C }
  - { offsetInCU: 0xE087, offset: 0xE087, size: 0x8, addend: 0x0, symName: __ZNSt3__115__list_iteratorIiPvEppB7v160006Ei, symObjAddr: 0x13D8, symBinAddr: 0x100004C68, symSize: 0x34 }
  - { offsetInCU: 0xE0C8, offset: 0xE0C8, size: 0x8, addend: 0x0, symName: __ZNSt3__14listIiNS_9allocatorIiEEE6insertENS_21__list_const_iteratorIiPvEEOi, symObjAddr: 0x140C, symBinAddr: 0x100004C9C, symSize: 0x100 }
  - { offsetInCU: 0xE13C, offset: 0xE13C, size: 0x8, addend: 0x0, symName: __ZNSt3__121__list_const_iteratorIiPvEC1B7v160006ERKNS_15__list_iteratorIiS1_EE, symObjAddr: 0x150C, symBinAddr: 0x100004D9C, symSize: 0x34 }
  - { offsetInCU: 0xE175, offset: 0xE175, size: 0x8, addend: 0x0, symName: __ZNSt3__14listIiNS_9allocatorIiEEE5eraseENS_21__list_const_iteratorIiPvEE, symObjAddr: 0x1540, symBinAddr: 0x100004DD0, symSize: 0xA4 }
  - { offsetInCU: 0xE1ED, offset: 0xE1ED, size: 0x8, addend: 0x0, symName: __ZNSt3__14listIiNS_9allocatorIiEEE6insertINS_15__list_iteratorIiPvEEEES7_NS_21__list_const_iteratorIiS6_EET_SA_PNS_9enable_ifIXsr25__is_cpp17_input_iteratorISA_EE5valueEvE4typeE, symObjAddr: 0x15E4, symBinAddr: 0x100004E74, symSize: 0x320 }
  - { offsetInCU: 0xE2C2, offset: 0xE2C2, size: 0x8, addend: 0x0, symName: __ZNSt3__14listIiNS_9allocatorIiEEE4sortEv, symObjAddr: 0x1904, symBinAddr: 0x100005194, symSize: 0x24 }
  - { offsetInCU: 0xE2EA, offset: 0xE2EA, size: 0x8, addend: 0x0, symName: __ZNSt3__14listIiNS_9allocatorIiEEE5mergeERS3_, symObjAddr: 0x1928, symBinAddr: 0x1000051B8, symSize: 0x2C }
  - { offsetInCU: 0xE321, offset: 0xE321, size: 0x8, addend: 0x0, symName: __ZNSt3__14listIiNS_9allocatorIiEEE6spliceENS_21__list_const_iteratorIiPvEERS3_, symObjAddr: 0x1954, symBinAddr: 0x1000051E4, symSize: 0xAC }
  - { offsetInCU: 0xE394, offset: 0xE394, size: 0x8, addend: 0x0, symName: __ZNSt3__14listIiNS_9allocatorIiEEED1Ev, symObjAddr: 0x1A00, symBinAddr: 0x100005290, symSize: 0x2C }
  - { offsetInCU: 0xE3C0, offset: 0xE3C0, size: 0x8, addend: 0x0, symName: __Z19test_unordered_mapsv, symObjAddr: 0x1A2C, symBinAddr: 0x1000052BC, symSize: 0x6D0 }
  - { offsetInCU: 0xE55B, offset: 0xE55B, size: 0x8, addend: 0x0, symName: __ZNSt3__113unordered_mapIiNS_12basic_stringIcNS_11char_traitsIcEENS_9allocatorIcEEEENS_4hashIiEENS_8equal_toIiEENS4_INS_4pairIKiS6_EEEEEC1B7v160006Ev, symObjAddr: 0x20FC, symBinAddr: 0x10000598C, symSize: 0x2C }
  - { offsetInCU: 0xE585, offset: 0xE585, size: 0x8, addend: 0x0, symName: __ZNSt3__113unordered_mapIiNS_12basic_stringIcNS_11char_traitsIcEENS_9allocatorIcEEEENS_4hashIiEENS_8equal_toIiEENS4_INS_4pairIKiS6_EEEEEixEOi, symObjAddr: 0x2128, symBinAddr: 0x1000059B8, symSize: 0x80 }
  - { offsetInCU: 0xE5BC, offset: 0xE5BC, size: 0x8, addend: 0x0, symName: __ZNSt3__112basic_stringIcNS_11char_traitsIcEENS_9allocatorIcEEEaSB7v160006EPKc, symObjAddr: 0x21A8, symBinAddr: 0x100005A38, symSize: 0x2C }
  - { offsetInCU: 0xE5F1, offset: 0xE5F1, size: 0x8, addend: 0x0, symName: __ZNSt3__113unordered_mapIiNS_12basic_stringIcNS_11char_traitsIcEENS_9allocatorIcEEEENS_4hashIiEENS_8equal_toIiEENS4_INS_4pairIKiS6_EEEEE5beginB7v160006Ev, symObjAddr: 0x21D4, symBinAddr: 0x100005A64, symSize: 0x38 }
  - { offsetInCU: 0xE617, offset: 0xE617, size: 0x8, addend: 0x0, symName: __ZNSt3__113unordered_mapIiNS_12basic_stringIcNS_11char_traitsIcEENS_9allocatorIcEEEENS_4hashIiEENS_8equal_toIiEENS4_INS_4pairIKiS6_EEEEE3endB7v160006Ev, symObjAddr: 0x220C, symBinAddr: 0x100005A9C, symSize: 0x38 }
  - { offsetInCU: 0xE63D, offset: 0xE63D, size: 0x8, addend: 0x0, symName: __ZNKSt3__119__hash_map_iteratorINS_15__hash_iteratorIPNS_11__hash_nodeINS_17__hash_value_typeIiNS_12basic_stringIcNS_11char_traitsIcEENS_9allocatorIcEEEEEEPvEEEEEdeB7v160006Ev, symObjAddr: 0x2274, symBinAddr: 0x100005B04, symSize: 0x28 }
  - { offsetInCU: 0xE663, offset: 0xE663, size: 0x8, addend: 0x0, symName: __ZNSt3__14pairIKiNS_12basic_stringIcNS_11char_traitsIcEENS_9allocatorIcEEEEEC1ERKS8_, symObjAddr: 0x229C, symBinAddr: 0x100005B2C, symSize: 0x34 }
  - { offsetInCU: 0xE697, offset: 0xE697, size: 0x8, addend: 0x0, symName: __ZNSt3__14pairIKiNS_12basic_stringIcNS_11char_traitsIcEENS_9allocatorIcEEEEED1Ev, symObjAddr: 0x231C, symBinAddr: 0x100005BAC, symSize: 0x2C }
  - { offsetInCU: 0xE6C3, offset: 0xE6C3, size: 0x8, addend: 0x0, symName: __ZNSt3__119__hash_map_iteratorINS_15__hash_iteratorIPNS_11__hash_nodeINS_17__hash_value_typeIiNS_12basic_stringIcNS_11char_traitsIcEENS_9allocatorIcEEEEEEPvEEEEEppB7v160006Ev, symObjAddr: 0x2348, symBinAddr: 0x100005BD8, symSize: 0x2C }
  - { offsetInCU: 0xE6E9, offset: 0xE6E9, size: 0x8, addend: 0x0, symName: __ZNSt3__113unordered_mapIiNS_12basic_stringIcNS_11char_traitsIcEENS_9allocatorIcEEEENS_4hashIiEENS_8equal_toIiEENS4_INS_4pairIKiS6_EEEEE4findB7v160006ERSC_, symObjAddr: 0x2374, symBinAddr: 0x100005C04, symSize: 0x40 }
  - { offsetInCU: 0xE71E, offset: 0xE71E, size: 0x8, addend: 0x0, symName: __ZNKSt3__119__hash_map_iteratorINS_15__hash_iteratorIPNS_11__hash_nodeINS_17__hash_value_typeIiNS_12basic_stringIcNS_11char_traitsIcEENS_9allocatorIcEEEEEEPvEEEEEptB7v160006Ev, symObjAddr: 0x23B4, symBinAddr: 0x100005C44, symSize: 0x2C }
  - { offsetInCU: 0xE744, offset: 0xE744, size: 0x8, addend: 0x0, symName: __ZNSt3__113unordered_mapIiNS_12basic_stringIcNS_11char_traitsIcEENS_9allocatorIcEEEENS_4hashIiEENS_8equal_toIiEENS4_INS_4pairIKiS6_EEEEE5eraseB7v160006ENS_19__hash_map_iteratorINS_15__hash_iteratorIPNS_11__hash_nodeINS_17__hash_value_typeIiS6_EEPvEEEEEE, symObjAddr: 0x23E0, symBinAddr: 0x100005C70, symSize: 0x58 }
  - { offsetInCU: 0xE779, offset: 0xE779, size: 0x8, addend: 0x0, symName: __ZNSt3__113unordered_mapIiNS_12basic_stringIcNS_11char_traitsIcEENS_9allocatorIcEEEENS_4hashIiEENS_8equal_toIiEENS4_INS_4pairIKiS6_EEEEED1B7v160006Ev, symObjAddr: 0x2438, symBinAddr: 0x100005CC8, symSize: 0x2C }
  - { offsetInCU: 0xE7A2, offset: 0xE7A2, size: 0x8, addend: 0x0, symName: __Z9partitionRNSt3__14listIiNS_9allocatorIiEEEEi, symObjAddr: 0x2464, symBinAddr: 0x100005CF4, symSize: 0x108 }
  - { offsetInCU: 0xE7FA, offset: 0xE7FA, size: 0x8, addend: 0x0, symName: __ZNSt3__14listIiNS_9allocatorIiEEE9push_backERKi, symObjAddr: 0x25C4, symBinAddr: 0x100005E54, symSize: 0xF0 }
  - { offsetInCU: 0xE84F, offset: 0xE84F, size: 0x8, addend: 0x0, symName: _main, symObjAddr: 0x26B4, symBinAddr: 0x100005F44, symSize: 0xB8 }
  - { offsetInCU: 0xE889, offset: 0xE889, size: 0x8, addend: 0x0, symName: __ZNSt3__14listIiNS_9allocatorIiEEED2Ev, symObjAddr: 0x276C, symBinAddr: 0x100005FFC, symSize: 0x2C }
  - { offsetInCU: 0xE8B6, offset: 0xE8B6, size: 0x8, addend: 0x0, symName: __ZNSt3__110__list_impIiNS_9allocatorIiEEED2Ev, symObjAddr: 0x2798, symBinAddr: 0x100006028, symSize: 0x3C }
  - { offsetInCU: 0xE8E2, offset: 0xE8E2, size: 0x8, addend: 0x0, symName: __ZNSt3__110__list_impIiNS_9allocatorIiEEE5clearEv, symObjAddr: 0x27D4, symBinAddr: 0x100006064, symSize: 0xEC }
  - { offsetInCU: 0xE952, offset: 0xE952, size: 0x8, addend: 0x0, symName: __ZNKSt3__110__list_impIiNS_9allocatorIiEEE5emptyB7v160006Ev, symObjAddr: 0x28DC, symBinAddr: 0x10000616C, symSize: 0x34 }
  - { offsetInCU: 0xE978, offset: 0xE978, size: 0x8, addend: 0x0, symName: __ZNSt3__110__list_impIiNS_9allocatorIiEEE12__node_allocB7v160006Ev, symObjAddr: 0x2910, symBinAddr: 0x1000061A0, symSize: 0x28 }
  - { offsetInCU: 0xE99E, offset: 0xE99E, size: 0x8, addend: 0x0, symName: __ZNKSt3__110__list_impIiNS_9allocatorIiEEE13__end_as_linkB7v160006Ev, symObjAddr: 0x2938, symBinAddr: 0x1000061C8, symSize: 0x44 }
  - { offsetInCU: 0xE9C4, offset: 0xE9C4, size: 0x8, addend: 0x0, symName: __ZNSt3__110__list_impIiNS_9allocatorIiEEE14__unlink_nodesEPNS_16__list_node_baseIiPvEES7_, symObjAddr: 0x297C, symBinAddr: 0x10000620C, symSize: 0x3C }
  - { offsetInCU: 0xE9F9, offset: 0xE9F9, size: 0x8, addend: 0x0, symName: __ZNSt3__110__list_impIiNS_9allocatorIiEEE4__szB7v160006Ev, symObjAddr: 0x29B8, symBinAddr: 0x100006248, symSize: 0x28 }
  - { offsetInCU: 0xEA1F, offset: 0xEA1F, size: 0x8, addend: 0x0, symName: __ZNSt3__116__list_node_baseIiPvE9__as_nodeB7v160006Ev, symObjAddr: 0x29E0, symBinAddr: 0x100006270, symSize: 0x24 }
  - { offsetInCU: 0xEA45, offset: 0xEA45, size: 0x8, addend: 0x0, symName: __ZNSt3__116allocator_traitsINS_9allocatorINS_11__list_nodeIiPvEEEEE7destroyB7v160006IivvEEvRS5_PT_, symObjAddr: 0x2A04, symBinAddr: 0x100006294, symSize: 0x14 }
  - { offsetInCU: 0xEA80, offset: 0xEA80, size: 0x8, addend: 0x0, symName: __ZNSt3__116allocator_traitsINS_9allocatorINS_11__list_nodeIiPvEEEEE10deallocateB7v160006ERS5_PS4_m, symObjAddr: 0x2A18, symBinAddr: 0x1000062A8, symSize: 0x34 }
  - { offsetInCU: 0xEAC2, offset: 0xEAC2, size: 0x8, addend: 0x0, symName: __ZNKSt3__110__list_impIiNS_9allocatorIiEEE4__szB7v160006Ev, symObjAddr: 0x2A5C, symBinAddr: 0x1000062EC, symSize: 0x28 }
  - { offsetInCU: 0xEAE8, offset: 0xEAE8, size: 0x8, addend: 0x0, symName: __ZNKSt3__117__compressed_pairImNS_9allocatorINS_11__list_nodeIiPvEEEEE5firstB7v160006Ev, symObjAddr: 0x2A84, symBinAddr: 0x100006314, symSize: 0x24 }
  - { offsetInCU: 0xEB0E, offset: 0xEB0E, size: 0x8, addend: 0x0, symName: __ZNKSt3__122__compressed_pair_elemImLi0ELb0EE5__getB7v160006Ev, symObjAddr: 0x2AA8, symBinAddr: 0x100006338, symSize: 0x14 }
  - { offsetInCU: 0xEB34, offset: 0xEB34, size: 0x8, addend: 0x0, symName: __ZNSt3__117__compressed_pairImNS_9allocatorINS_11__list_nodeIiPvEEEEE6secondB7v160006Ev, symObjAddr: 0x2ABC, symBinAddr: 0x10000634C, symSize: 0x24 }
  - { offsetInCU: 0xEB5A, offset: 0xEB5A, size: 0x8, addend: 0x0, symName: __ZNSt3__122__compressed_pair_elemINS_9allocatorINS_11__list_nodeIiPvEEEELi1ELb1EE5__getB7v160006Ev, symObjAddr: 0x2AE0, symBinAddr: 0x100006370, symSize: 0x14 }
  - { offsetInCU: 0xEB80, offset: 0xEB80, size: 0x8, addend: 0x0, symName: __ZNSt3__126__list_node_pointer_traitsIiPvE26__unsafe_link_pointer_castB7v160006EPNS_16__list_node_baseIiS1_EE, symObjAddr: 0x2AF4, symBinAddr: 0x100006384, symSize: 0x14 }
  - { offsetInCU: 0xEBA4, offset: 0xEBA4, size: 0x8, addend: 0x0, symName: __ZNSt3__116__list_node_baseIiPvE6__selfB7v160006Ev, symObjAddr: 0x2B08, symBinAddr: 0x100006398, symSize: 0x24 }
  - { offsetInCU: 0xEBCF, offset: 0xEBCF, size: 0x8, addend: 0x0, symName: __ZNSt3__114pointer_traitsIPNS_16__list_node_baseIiPvEEE10pointer_toB7v160006ERS3_, symObjAddr: 0x2B2C, symBinAddr: 0x1000063BC, symSize: 0x14 }
  - { offsetInCU: 0xEBF2, offset: 0xEBF2, size: 0x8, addend: 0x0, symName: __ZNSt3__117__compressed_pairImNS_9allocatorINS_11__list_nodeIiPvEEEEE5firstB7v160006Ev, symObjAddr: 0x2B40, symBinAddr: 0x1000063D0, symSize: 0x24 }
  - { offsetInCU: 0xEC18, offset: 0xEC18, size: 0x8, addend: 0x0, symName: __ZNSt3__122__compressed_pair_elemImLi0ELb0EE5__getB7v160006Ev, symObjAddr: 0x2B64, symBinAddr: 0x1000063F4, symSize: 0x14 }
  - { offsetInCU: 0xEC3E, offset: 0xEC3E, size: 0x8, addend: 0x0, symName: __ZNSt3__19allocatorINS_11__list_nodeIiPvEEE10deallocateB7v160006EPS3_m, symObjAddr: 0x2B78, symBinAddr: 0x100006408, symSize: 0x44 }
  - { offsetInCU: 0xEC80, offset: 0xEC80, size: 0x8, addend: 0x0, symName: __ZNSt3__14pairIKiNS_12basic_stringIcNS_11char_traitsIcEENS_9allocatorIcEEEEEC2ERKS8_, symObjAddr: 0x2C38, symBinAddr: 0x1000064C8, symSize: 0x48 }
  - { offsetInCU: 0xECB4, offset: 0xECB4, size: 0x8, addend: 0x0, symName: __ZNSt3__14pairIKiNS_12basic_stringIcNS_11char_traitsIcEENS_9allocatorIcEEEEED2Ev, symObjAddr: 0x2C80, symBinAddr: 0x100006510, symSize: 0x30 }
  - { offsetInCU: 0xECE0, offset: 0xECE0, size: 0x8, addend: 0x0, symName: __ZNSt3__14listIiNS_9allocatorIiEEEC2ESt16initializer_listIiE, symObjAddr: 0x2CB0, symBinAddr: 0x100006540, symSize: 0xC8 }
  - { offsetInCU: 0xED48, offset: 0xED48, size: 0x8, addend: 0x0, symName: __ZNSt3__110__list_impIiNS_9allocatorIiEEEC2Ev, symObjAddr: 0x2D78, symBinAddr: 0x100006608, symSize: 0x50 }
  - { offsetInCU: 0xED74, offset: 0xED74, size: 0x8, addend: 0x0, symName: __ZNKSt16initializer_listIiE5beginB7v160006Ev, symObjAddr: 0x2DD8, symBinAddr: 0x100006668, symSize: 0x18 }
  - { offsetInCU: 0xED9A, offset: 0xED9A, size: 0x8, addend: 0x0, symName: __ZNKSt16initializer_listIiE3endB7v160006Ev, symObjAddr: 0x2DF0, symBinAddr: 0x100006680, symSize: 0x20 }
  - { offsetInCU: 0xEDC0, offset: 0xEDC0, size: 0x8, addend: 0x0, symName: __ZNSt3__116__list_node_baseIiPvEC1B7v160006Ev, symObjAddr: 0x2E10, symBinAddr: 0x1000066A0, symSize: 0x2C }
  - { offsetInCU: 0xEDEF, offset: 0xEDEF, size: 0x8, addend: 0x0, symName: __ZNSt3__117__compressed_pairImNS_9allocatorINS_11__list_nodeIiPvEEEEEC1B7v160006IiNS_18__default_init_tagEEEOT_OT0_, symObjAddr: 0x2E3C, symBinAddr: 0x1000066CC, symSize: 0x3C }
  - { offsetInCU: 0xEE47, offset: 0xEE47, size: 0x8, addend: 0x0, symName: __ZNSt3__116__list_node_baseIiPvEC2B7v160006Ev, symObjAddr: 0x2E78, symBinAddr: 0x100006708, symSize: 0x4C }
  - { offsetInCU: 0xEE71, offset: 0xEE71, size: 0x8, addend: 0x0, symName: __ZNSt3__117__compressed_pairImNS_9allocatorINS_11__list_nodeIiPvEEEEEC2B7v160006IiNS_18__default_init_tagEEEOT_OT0_, symObjAddr: 0x2EC4, symBinAddr: 0x100006754, symSize: 0x40 }
  - { offsetInCU: 0xEEC9, offset: 0xEEC9, size: 0x8, addend: 0x0, symName: __ZNSt3__122__compressed_pair_elemImLi0ELb0EEC2B7v160006IivEEOT_, symObjAddr: 0x2F04, symBinAddr: 0x100006794, symSize: 0x24 }
  - { offsetInCU: 0xEF0B, offset: 0xEF0B, size: 0x8, addend: 0x0, symName: __ZNSt3__122__compressed_pair_elemINS_9allocatorINS_11__list_nodeIiPvEEEELi1ELb1EEC2B7v160006ENS_18__default_init_tagE, symObjAddr: 0x2F28, symBinAddr: 0x1000067B8, symSize: 0x2C }
  - { offsetInCU: 0xEF3F, offset: 0xEF3F, size: 0x8, addend: 0x0, symName: __ZNSt3__19allocatorINS_11__list_nodeIiPvEEEC2B7v160006Ev, symObjAddr: 0x2F54, symBinAddr: 0x1000067E4, symSize: 0x2C }
  - { offsetInCU: 0xEF69, offset: 0xEF69, size: 0x8, addend: 0x0, symName: __ZNSt3__116__non_trivial_ifILb1ENS_9allocatorINS_11__list_nodeIiPvEEEEEC2B7v160006Ev, symObjAddr: 0x2F80, symBinAddr: 0x100006810, symSize: 0x14 }
  - { offsetInCU: 0xEF93, offset: 0xEF93, size: 0x8, addend: 0x0, symName: __ZNSt3__111char_traitsIcE6lengthEPKc, symObjAddr: 0x3180, symBinAddr: 0x100006A10, symSize: 0x34 }
  - { offsetInCU: 0xEFD4, offset: 0xEFD4, size: 0x8, addend: 0x0, symName: __ZNKSt3__113basic_ostreamIcNS_11char_traitsIcEEE6sentrycvbB7v160006Ev, symObjAddr: 0x31B4, symBinAddr: 0x100006A44, symSize: 0x1C }
  - { offsetInCU: 0xEFFA, offset: 0xEFFA, size: 0x8, addend: 0x0, symName: __ZNSt3__119ostreambuf_iteratorIcNS_11char_traitsIcEEEC1B7v160006ERNS_13basic_ostreamIcS2_EE, symObjAddr: 0x3410, symBinAddr: 0x100006CA0, symSize: 0x34 }
  - { offsetInCU: 0xF032, offset: 0xF032, size: 0x8, addend: 0x0, symName: __ZNKSt3__18ios_base5flagsB7v160006Ev, symObjAddr: 0x3444, symBinAddr: 0x100006CD4, symSize: 0x18 }
  - { offsetInCU: 0xF05A, offset: 0xF05A, size: 0x8, addend: 0x0, symName: __ZNKSt3__19basic_iosIcNS_11char_traitsIcEEE4fillB7v160006Ev, symObjAddr: 0x345C, symBinAddr: 0x100006CEC, symSize: 0x64 }
  - { offsetInCU: 0xF082, offset: 0xF082, size: 0x8, addend: 0x0, symName: __ZNKSt3__119ostreambuf_iteratorIcNS_11char_traitsIcEEE6failedB7v160006Ev, symObjAddr: 0x34C0, symBinAddr: 0x100006D50, symSize: 0x24 }
  - { offsetInCU: 0xF0A8, offset: 0xF0A8, size: 0x8, addend: 0x0, symName: __ZNSt3__19basic_iosIcNS_11char_traitsIcEEE8setstateB7v160006Ej, symObjAddr: 0x34E4, symBinAddr: 0x100006D74, symSize: 0x2C }
  - { offsetInCU: 0xF0DD, offset: 0xF0DD, size: 0x8, addend: 0x0, symName: __ZNKSt3__18ios_base5widthB7v160006Ev, symObjAddr: 0x3510, symBinAddr: 0x100006DA0, symSize: 0x18 }
  - { offsetInCU: 0xF105, offset: 0xF105, size: 0x8, addend: 0x0, symName: __ZNSt3__115basic_streambufIcNS_11char_traitsIcEEE5sputnB7v160006EPKcl, symObjAddr: 0x3528, symBinAddr: 0x100006DB8, symSize: 0x3C }
  - { offsetInCU: 0xF147, offset: 0xF147, size: 0x8, addend: 0x0, symName: __ZNSt3__112basic_stringIcNS_11char_traitsIcEENS_9allocatorIcEEEC1B7v160006Emc, symObjAddr: 0x3564, symBinAddr: 0x100006DF4, symSize: 0x3C }
  - { offsetInCU: 0xF18F, offset: 0xF18F, size: 0x8, addend: 0x0, symName: __ZNKSt3__112basic_stringIcNS_11char_traitsIcEENS_9allocatorIcEEE4dataB7v160006Ev, symObjAddr: 0x35A0, symBinAddr: 0x100006E30, symSize: 0x28 }
  - { offsetInCU: 0xF1B5, offset: 0xF1B5, size: 0x8, addend: 0x0, symName: __ZNSt3__18ios_base5widthB7v160006El, symObjAddr: 0x35C8, symBinAddr: 0x100006E58, symSize: 0x2C }
  - { offsetInCU: 0xF1FB, offset: 0xF1FB, size: 0x8, addend: 0x0, symName: __ZNSt3__112basic_stringIcNS_11char_traitsIcEENS_9allocatorIcEEEC2B7v160006Emc, symObjAddr: 0x35F4, symBinAddr: 0x100006E84, symSize: 0x54 }
  - { offsetInCU: 0xF243, offset: 0xF243, size: 0x8, addend: 0x0, symName: __ZNSt3__117__compressed_pairINS_12basic_stringIcNS_11char_traitsIcEENS_9allocatorIcEEE5__repES5_EC1B7v160006INS_18__default_init_tagESA_EEOT_OT0_, symObjAddr: 0x3648, symBinAddr: 0x100006ED8, symSize: 0x3C }
  - { offsetInCU: 0xF29B, offset: 0xF29B, size: 0x8, addend: 0x0, symName: __ZNSt3__117__compressed_pairINS_12basic_stringIcNS_11char_traitsIcEENS_9allocatorIcEEE5__repES5_EC2B7v160006INS_18__default_init_tagESA_EEOT_OT0_, symObjAddr: 0x3694, symBinAddr: 0x100006F24, symSize: 0x3C }
  - { offsetInCU: 0xF2F3, offset: 0xF2F3, size: 0x8, addend: 0x0, symName: __ZNSt3__122__compressed_pair_elemINS_12basic_stringIcNS_11char_traitsIcEENS_9allocatorIcEEE5__repELi0ELb0EEC2B7v160006ENS_18__default_init_tagE, symObjAddr: 0x36D0, symBinAddr: 0x100006F60, symSize: 0x14 }
  - { offsetInCU: 0xF327, offset: 0xF327, size: 0x8, addend: 0x0, symName: __ZNSt3__122__compressed_pair_elemINS_9allocatorIcEELi1ELb1EEC2B7v160006ENS_18__default_init_tagE, symObjAddr: 0x36E4, symBinAddr: 0x100006F74, symSize: 0x2C }
  - { offsetInCU: 0xF35B, offset: 0xF35B, size: 0x8, addend: 0x0, symName: __ZNSt3__19allocatorIcEC2B7v160006Ev, symObjAddr: 0x3710, symBinAddr: 0x100006FA0, symSize: 0x2C }
  - { offsetInCU: 0xF385, offset: 0xF385, size: 0x8, addend: 0x0, symName: __ZNSt3__116__non_trivial_ifILb1ENS_9allocatorIcEEEC2B7v160006Ev, symObjAddr: 0x373C, symBinAddr: 0x100006FCC, symSize: 0x14 }
  - { offsetInCU: 0xF3AF, offset: 0xF3AF, size: 0x8, addend: 0x0, symName: __ZNKSt3__112basic_stringIcNS_11char_traitsIcEENS_9allocatorIcEEE13__get_pointerB7v160006Ev, symObjAddr: 0x3764, symBinAddr: 0x100006FF4, symSize: 0x54 }
  - { offsetInCU: 0xF3D5, offset: 0xF3D5, size: 0x8, addend: 0x0, symName: __ZNKSt3__112basic_stringIcNS_11char_traitsIcEENS_9allocatorIcEEE9__is_longB7v160006Ev, symObjAddr: 0x37B8, symBinAddr: 0x100007048, symSize: 0x38 }
  - { offsetInCU: 0xF3FB, offset: 0xF3FB, size: 0x8, addend: 0x0, symName: __ZNKSt3__112basic_stringIcNS_11char_traitsIcEENS_9allocatorIcEEE18__get_long_pointerB7v160006Ev, symObjAddr: 0x37F0, symBinAddr: 0x100007080, symSize: 0x28 }
  - { offsetInCU: 0xF421, offset: 0xF421, size: 0x8, addend: 0x0, symName: __ZNKSt3__112basic_stringIcNS_11char_traitsIcEENS_9allocatorIcEEE19__get_short_pointerB7v160006Ev, symObjAddr: 0x3818, symBinAddr: 0x1000070A8, symSize: 0x28 }
  - { offsetInCU: 0xF447, offset: 0xF447, size: 0x8, addend: 0x0, symName: __ZNKSt3__117__compressed_pairINS_12basic_stringIcNS_11char_traitsIcEENS_9allocatorIcEEE5__repES5_E5firstB7v160006Ev, symObjAddr: 0x3840, symBinAddr: 0x1000070D0, symSize: 0x24 }
  - { offsetInCU: 0xF46D, offset: 0xF46D, size: 0x8, addend: 0x0, symName: __ZNKSt3__122__compressed_pair_elemINS_12basic_stringIcNS_11char_traitsIcEENS_9allocatorIcEEE5__repELi0ELb0EE5__getB7v160006Ev, symObjAddr: 0x3864, symBinAddr: 0x1000070F4, symSize: 0x14 }
  - { offsetInCU: 0xF493, offset: 0xF493, size: 0x8, addend: 0x0, symName: __ZNSt3__114pointer_traitsIPKcE10pointer_toB7v160006ERS1_, symObjAddr: 0x3878, symBinAddr: 0x100007108, symSize: 0x14 }
  - { offsetInCU: 0xF4B6, offset: 0xF4B6, size: 0x8, addend: 0x0, symName: __ZNSt3__119ostreambuf_iteratorIcNS_11char_traitsIcEEEC2B7v160006ERNS_13basic_ostreamIcS2_EE, symObjAddr: 0x388C, symBinAddr: 0x10000711C, symSize: 0x54 }
  - { offsetInCU: 0xF4EE, offset: 0xF4EE, size: 0x8, addend: 0x0, symName: __ZNKSt3__19basic_iosIcNS_11char_traitsIcEEE5rdbufB7v160006Ev, symObjAddr: 0x38E0, symBinAddr: 0x100007170, symSize: 0x24 }
  - { offsetInCU: 0xF516, offset: 0xF516, size: 0x8, addend: 0x0, symName: __ZNKSt3__18ios_base5rdbufB7v160006Ev, symObjAddr: 0x3904, symBinAddr: 0x100007194, symSize: 0x18 }
  - { offsetInCU: 0xF53C, offset: 0xF53C, size: 0x8, addend: 0x0, symName: __ZNSt3__111char_traitsIcE11eq_int_typeEii, symObjAddr: 0x391C, symBinAddr: 0x1000071AC, symSize: 0x28 }
  - { offsetInCU: 0xF56D, offset: 0xF56D, size: 0x8, addend: 0x0, symName: __ZNSt3__111char_traitsIcE3eofEv, symObjAddr: 0x3944, symBinAddr: 0x1000071D4, symSize: 0x8 }
  - { offsetInCU: 0xF581, offset: 0xF581, size: 0x8, addend: 0x0, symName: __ZNKSt3__19basic_iosIcNS_11char_traitsIcEEE5widenB7v160006Ec, symObjAddr: 0x394C, symBinAddr: 0x1000071DC, symSize: 0x84 }
  - { offsetInCU: 0xF5EF, offset: 0xF5EF, size: 0x8, addend: 0x0, symName: __ZNKSt3__15ctypeIcE5widenB7v160006Ec, symObjAddr: 0x39FC, symBinAddr: 0x10000728C, symSize: 0x38 }
  - { offsetInCU: 0xF624, offset: 0xF624, size: 0x8, addend: 0x0, symName: __ZNSt3__18ios_base8setstateB7v160006Ej, symObjAddr: 0x3A34, symBinAddr: 0x1000072C4, symSize: 0x34 }
  - { offsetInCU: 0xF65B, offset: 0xF65B, size: 0x8, addend: 0x0, symName: __ZNSt3__110__list_impIiNS_9allocatorIiEEE5beginB7v160006Ev, symObjAddr: 0x3A8C, symBinAddr: 0x10000731C, symSize: 0x30 }
  - { offsetInCU: 0xF681, offset: 0xF681, size: 0x8, addend: 0x0, symName: __ZNSt3__115__list_iteratorIiPvEC1B7v160006EPNS_16__list_node_baseIiS1_EEPKv, symObjAddr: 0x3ABC, symBinAddr: 0x10000734C, symSize: 0x3C }
  - { offsetInCU: 0xF6C9, offset: 0xF6C9, size: 0x8, addend: 0x0, symName: __ZNSt3__115__list_iteratorIiPvEC2B7v160006EPNS_16__list_node_baseIiS1_EEPKv, symObjAddr: 0x3AF8, symBinAddr: 0x100007388, symSize: 0x24 }
  - { offsetInCU: 0xF711, offset: 0xF711, size: 0x8, addend: 0x0, symName: __ZNSt3__110__list_impIiNS_9allocatorIiEEE3endB7v160006Ev, symObjAddr: 0x3B1C, symBinAddr: 0x1000073AC, symSize: 0x3C }
  - { offsetInCU: 0xF737, offset: 0xF737, size: 0x8, addend: 0x0, symName: __ZNSt3__115__list_iteratorIiPvEmmB7v160006Ev, symObjAddr: 0x3C40, symBinAddr: 0x1000074D0, symSize: 0x20 }
  - { offsetInCU: 0xF75D, offset: 0xF75D, size: 0x8, addend: 0x0, symName: __ZNSt3__14listIiNS_9allocatorIiEEE15__allocate_nodeB7v160006ERNS1_INS_11__list_nodeIiPvEEEE, symObjAddr: 0x3C60, symBinAddr: 0x1000074F0, symSize: 0x70 }
  - { offsetInCU: 0xF7A1, offset: 0xF7A1, size: 0x8, addend: 0x0, symName: __ZNSt3__116allocator_traitsINS_9allocatorINS_11__list_nodeIiPvEEEEE9constructB7v160006IiJiEvEEvRS5_PT_DpOT0_, symObjAddr: 0x3CD0, symBinAddr: 0x100007560, symSize: 0x34 }
  - { offsetInCU: 0xF7F8, offset: 0xF7F8, size: 0x8, addend: 0x0, symName: __ZNKSt3__110unique_ptrINS_11__list_nodeIiPvEENS_22__allocator_destructorINS_9allocatorIS3_EEEEEptB7v160006Ev, symObjAddr: 0x3D04, symBinAddr: 0x100007594, symSize: 0x28 }
  - { offsetInCU: 0xF81E, offset: 0xF81E, size: 0x8, addend: 0x0, symName: __ZNSt3__111__list_nodeIiPvE9__as_linkB7v160006Ev, symObjAddr: 0x3D2C, symBinAddr: 0x1000075BC, symSize: 0x24 }
  - { offsetInCU: 0xF844, offset: 0xF844, size: 0x8, addend: 0x0, symName: __ZNSt3__14listIiNS_9allocatorIiEEE12__link_nodesEPNS_16__list_node_baseIiPvEES7_S7_, symObjAddr: 0x3D50, symBinAddr: 0x1000075E0, symSize: 0x50 }
  - { offsetInCU: 0xF888, offset: 0xF888, size: 0x8, addend: 0x0, symName: __ZNSt3__110unique_ptrINS_11__list_nodeIiPvEENS_22__allocator_destructorINS_9allocatorIS3_EEEEE7releaseB7v160006Ev, symObjAddr: 0x3DA0, symBinAddr: 0x100007630, symSize: 0x44 }
  - { offsetInCU: 0xF8BD, offset: 0xF8BD, size: 0x8, addend: 0x0, symName: __ZNSt3__110unique_ptrINS_11__list_nodeIiPvEENS_22__allocator_destructorINS_9allocatorIS3_EEEEED1B7v160006Ev, symObjAddr: 0x3DE4, symBinAddr: 0x100007674, symSize: 0x2C }
  - { offsetInCU: 0xF8E7, offset: 0xF8E7, size: 0x8, addend: 0x0, symName: __ZNSt3__116allocator_traitsINS_9allocatorINS_11__list_nodeIiPvEEEEE8allocateB7v160006ERS5_m, symObjAddr: 0x3E10, symBinAddr: 0x1000076A0, symSize: 0x2C }
  - { offsetInCU: 0xF91A, offset: 0xF91A, size: 0x8, addend: 0x0, symName: __ZNSt3__122__allocator_destructorINS_9allocatorINS_11__list_nodeIiPvEEEEEC1B7v160006ERS5_m, symObjAddr: 0x3E3C, symBinAddr: 0x1000076CC, symSize: 0x3C }
  - { offsetInCU: 0xF965, offset: 0xF965, size: 0x8, addend: 0x0, symName: __ZNSt3__110unique_ptrINS_11__list_nodeIiPvEENS_22__allocator_destructorINS_9allocatorIS3_EEEEEC1B7v160006ILb1EvEEPS3_NS_16__dependent_typeINS_27__unique_ptr_deleter_sfinaeIS7_EEXT_EE20__good_rval_ref_typeE, symObjAddr: 0x3E78, symBinAddr: 0x100007708, symSize: 0x3C }
  - { offsetInCU: 0xF9B6, offset: 0xF9B6, size: 0x8, addend: 0x0, symName: __ZNSt3__19allocatorINS_11__list_nodeIiPvEEE8allocateB7v160006Em, symObjAddr: 0x3EB4, symBinAddr: 0x100007744, symSize: 0x5C }
  - { offsetInCU: 0xF9F4, offset: 0xF9F4, size: 0x8, addend: 0x0, symName: __ZNSt3__116allocator_traitsINS_9allocatorINS_11__list_nodeIiPvEEEEE8max_sizeB7v160006IS5_vEEmRKS5_, symObjAddr: 0x3F10, symBinAddr: 0x1000077A0, symSize: 0x24 }
  - { offsetInCU: 0xFA22, offset: 0xFA22, size: 0x8, addend: 0x0, symName: __ZNKSt3__19allocatorINS_11__list_nodeIiPvEEE8max_sizeB7v160006Ev, symObjAddr: 0x3F90, symBinAddr: 0x100007820, symSize: 0x18 }
  - { offsetInCU: 0xFA48, offset: 0xFA48, size: 0x8, addend: 0x0, symName: __ZNSt3__122__allocator_destructorINS_9allocatorINS_11__list_nodeIiPvEEEEEC2B7v160006ERS5_m, symObjAddr: 0x3FCC, symBinAddr: 0x10000785C, symSize: 0x2C }
  - { offsetInCU: 0xFA8E, offset: 0xFA8E, size: 0x8, addend: 0x0, symName: __ZNSt3__110unique_ptrINS_11__list_nodeIiPvEENS_22__allocator_destructorINS_9allocatorIS3_EEEEEC2B7v160006ILb1EvEEPS3_NS_16__dependent_typeINS_27__unique_ptr_deleter_sfinaeIS7_EEXT_EE20__good_rval_ref_typeE, symObjAddr: 0x3FF8, symBinAddr: 0x100007888, symSize: 0x48 }
  - { offsetInCU: 0xFADF, offset: 0xFADF, size: 0x8, addend: 0x0, symName: __ZNSt3__117__compressed_pairIPNS_11__list_nodeIiPvEENS_22__allocator_destructorINS_9allocatorIS3_EEEEEC1B7v160006IRS4_S8_EEOT_OT0_, symObjAddr: 0x4040, symBinAddr: 0x1000078D0, symSize: 0x3C }
  - { offsetInCU: 0xFB37, offset: 0xFB37, size: 0x8, addend: 0x0, symName: __ZNSt3__117__compressed_pairIPNS_11__list_nodeIiPvEENS_22__allocator_destructorINS_9allocatorIS3_EEEEEC2B7v160006IRS4_S8_EEOT_OT0_, symObjAddr: 0x407C, symBinAddr: 0x10000790C, symSize: 0x48 }
  - { offsetInCU: 0xFB8F, offset: 0xFB8F, size: 0x8, addend: 0x0, symName: __ZNSt3__122__compressed_pair_elemIPNS_11__list_nodeIiPvEELi0ELb0EEC2B7v160006IRS4_vEEOT_, symObjAddr: 0x40C4, symBinAddr: 0x100007954, symSize: 0x24 }
  - { offsetInCU: 0xFBD1, offset: 0xFBD1, size: 0x8, addend: 0x0, symName: __ZNSt3__122__compressed_pair_elemINS_22__allocator_destructorINS_9allocatorINS_11__list_nodeIiPvEEEEEELi1ELb0EEC2B7v160006IS7_vEEOT_, symObjAddr: 0x40E8, symBinAddr: 0x100007978, symSize: 0x24 }
  - { offsetInCU: 0xFC13, offset: 0xFC13, size: 0x8, addend: 0x0, symName: __ZNSt3__19allocatorINS_11__list_nodeIiPvEEE9constructB7v160006IiJiEEEvPT_DpOT0_, symObjAddr: 0x410C, symBinAddr: 0x10000799C, symSize: 0x28 }
  - { offsetInCU: 0xFC69, offset: 0xFC69, size: 0x8, addend: 0x0, symName: __ZNKSt3__117__compressed_pairIPNS_11__list_nodeIiPvEENS_22__allocator_destructorINS_9allocatorIS3_EEEEE5firstB7v160006Ev, symObjAddr: 0x4134, symBinAddr: 0x1000079C4, symSize: 0x24 }
  - { offsetInCU: 0xFC8F, offset: 0xFC8F, size: 0x8, addend: 0x0, symName: __ZNKSt3__122__compressed_pair_elemIPNS_11__list_nodeIiPvEELi0ELb0EE5__getB7v160006Ev, symObjAddr: 0x4158, symBinAddr: 0x1000079E8, symSize: 0x14 }
  - { offsetInCU: 0xFCB5, offset: 0xFCB5, size: 0x8, addend: 0x0, symName: __ZNSt3__117__compressed_pairIPNS_11__list_nodeIiPvEENS_22__allocator_destructorINS_9allocatorIS3_EEEEE5firstB7v160006Ev, symObjAddr: 0x416C, symBinAddr: 0x1000079FC, symSize: 0x24 }
  - { offsetInCU: 0xFCDB, offset: 0xFCDB, size: 0x8, addend: 0x0, symName: __ZNSt3__122__compressed_pair_elemIPNS_11__list_nodeIiPvEELi0ELb0EE5__getB7v160006Ev, symObjAddr: 0x4190, symBinAddr: 0x100007A20, symSize: 0x14 }
  - { offsetInCU: 0xFD01, offset: 0xFD01, size: 0x8, addend: 0x0, symName: __ZNSt3__110unique_ptrINS_11__list_nodeIiPvEENS_22__allocator_destructorINS_9allocatorIS3_EEEEED2B7v160006Ev, symObjAddr: 0x41A4, symBinAddr: 0x100007A34, symSize: 0x30 }
  - { offsetInCU: 0xFD2B, offset: 0xFD2B, size: 0x8, addend: 0x0, symName: __ZNSt3__110unique_ptrINS_11__list_nodeIiPvEENS_22__allocator_destructorINS_9allocatorIS3_EEEEE5resetB7v160006EPS3_, symObjAddr: 0x41D4, symBinAddr: 0x100007A64, symSize: 0x78 }
  - { offsetInCU: 0xFD6F, offset: 0xFD6F, size: 0x8, addend: 0x0, symName: __ZNSt3__117__compressed_pairIPNS_11__list_nodeIiPvEENS_22__allocator_destructorINS_9allocatorIS3_EEEEE6secondB7v160006Ev, symObjAddr: 0x424C, symBinAddr: 0x100007ADC, symSize: 0x28 }
  - { offsetInCU: 0xFD95, offset: 0xFD95, size: 0x8, addend: 0x0, symName: __ZNSt3__122__allocator_destructorINS_9allocatorINS_11__list_nodeIiPvEEEEEclB7v160006EPS4_, symObjAddr: 0x4274, symBinAddr: 0x100007B04, symSize: 0x34 }
  - { offsetInCU: 0xFDC9, offset: 0xFDC9, size: 0x8, addend: 0x0, symName: __ZNSt3__122__compressed_pair_elemINS_22__allocator_destructorINS_9allocatorINS_11__list_nodeIiPvEEEEEELi1ELb0EE5__getB7v160006Ev, symObjAddr: 0x42A8, symBinAddr: 0x100007B38, symSize: 0x14 }
  - { offsetInCU: 0xFDEF, offset: 0xFDEF, size: 0x8, addend: 0x0, symName: __ZNSt3__121__list_const_iteratorIiPvEC2B7v160006ERKNS_15__list_iteratorIiS1_EE, symObjAddr: 0x42BC, symBinAddr: 0x100007B4C, symSize: 0x24 }
  - { offsetInCU: 0xFE28, offset: 0xFE28, size: 0x8, addend: 0x0, symName: __ZNSt3__116allocator_traitsINS_9allocatorINS_11__list_nodeIiPvEEEEE9constructB7v160006IiJRiEvEEvRS5_PT_DpOT0_, symObjAddr: 0x42E0, symBinAddr: 0x100007B70, symSize: 0x34 }
  - { offsetInCU: 0xFE7F, offset: 0xFE7F, size: 0x8, addend: 0x0, symName: __ZNKSt3__110unique_ptrINS_11__list_nodeIiPvEENS_22__allocator_destructorINS_9allocatorIS3_EEEEE3getB7v160006Ev, symObjAddr: 0x4314, symBinAddr: 0x100007BA4, symSize: 0x28 }
  - { offsetInCU: 0xFEA5, offset: 0xFEA5, size: 0x8, addend: 0x0, symName: __ZNSt3__19allocatorINS_11__list_nodeIiPvEEE9constructB7v160006IiJRiEEEvPT_DpOT0_, symObjAddr: 0x433C, symBinAddr: 0x100007BCC, symSize: 0x28 }
  - { offsetInCU: 0xFF05, offset: 0xFF05, size: 0x8, addend: 0x0, symName: __ZNSt3__14listIiNS_9allocatorIiEEE4sortINS_6__lessIiiEEEEvT_, symObjAddr: 0x4364, symBinAddr: 0x100007BF4, symSize: 0x60 }
  - { offsetInCU: 0xFF4A, offset: 0xFF4A, size: 0x8, addend: 0x0, symName: __ZNSt3__14listIiNS_9allocatorIiEEE6__sortINS_6__lessIiiEEEENS_15__list_iteratorIiPvEES9_S9_mRT_, symObjAddr: 0x43C4, symBinAddr: 0x100007C54, symSize: 0x460 }
  - { offsetInCU: 0x10081, offset: 0x10081, size: 0x8, addend: 0x0, symName: __ZNKSt3__16__lessIiiEclB7v160006ERKiS3_, symObjAddr: 0x4824, symBinAddr: 0x1000080B4, symSize: 0x34 }
  - { offsetInCU: 0x100C3, offset: 0x100C3, size: 0x8, addend: 0x0, symName: __ZNSt3__14listIiNS_9allocatorIiEEE5mergeINS_6__lessIiiEEEEvRS3_T_, symObjAddr: 0x490C, symBinAddr: 0x10000819C, symSize: 0x240 }
  - { offsetInCU: 0x101AB, offset: 0x101AB, size: 0x8, addend: 0x0, symName: __ZNKSt3__14listIiNS_9allocatorIiEEE5emptyB7v160006Ev, symObjAddr: 0x4B4C, symBinAddr: 0x1000083DC, symSize: 0x28 }
  - { offsetInCU: 0x101D1, offset: 0x101D1, size: 0x8, addend: 0x0, symName: __ZNSt3__113unordered_mapIiNS_12basic_stringIcNS_11char_traitsIcEENS_9allocatorIcEEEENS_4hashIiEENS_8equal_toIiEENS4_INS_4pairIKiS6_EEEEEC2B7v160006Ev, symObjAddr: 0x4B74, symBinAddr: 0x100008404, symSize: 0x3C }
  - { offsetInCU: 0x101FB, offset: 0x101FB, size: 0x8, addend: 0x0, symName: __ZNSt3__112__hash_tableINS_17__hash_value_typeIiNS_12basic_stringIcNS_11char_traitsIcEENS_9allocatorIcEEEEEENS_22__unordered_map_hasherIiS8_NS_4hashIiEENS_8equal_toIiEELb1EEENS_21__unordered_map_equalIiS8_SD_SB_Lb1EEENS5_IS8_EEEC1Ev, symObjAddr: 0x4BB0, symBinAddr: 0x100008440, symSize: 0x2C }
  - { offsetInCU: 0x10227, offset: 0x10227, size: 0x8, addend: 0x0, symName: __ZNSt3__112__hash_tableINS_17__hash_value_typeIiNS_12basic_stringIcNS_11char_traitsIcEENS_9allocatorIcEEEEEENS_22__unordered_map_hasherIiS8_NS_4hashIiEENS_8equal_toIiEELb1EEENS_21__unordered_map_equalIiS8_SD_SB_Lb1EEENS5_IS8_EEEC2Ev, symObjAddr: 0x4BEC, symBinAddr: 0x10000847C, symSize: 0x7C }
  - { offsetInCU: 0x10253, offset: 0x10253, size: 0x8, addend: 0x0, symName: __ZNSt3__110unique_ptrIA_PNS_16__hash_node_baseIPNS_11__hash_nodeINS_17__hash_value_typeIiNS_12basic_stringIcNS_11char_traitsIcEENS_9allocatorIcEEEEEEPvEEEENS_25__bucket_list_deallocatorINS7_ISF_EEEEEC1B7v160006ILb1EvEEv, symObjAddr: 0x4C68, symBinAddr: 0x1000084F8, symSize: 0x2C }
  - { offsetInCU: 0x10288, offset: 0x10288, size: 0x8, addend: 0x0, symName: __ZNSt3__117__compressed_pairINS_16__hash_node_baseIPNS_11__hash_nodeINS_17__hash_value_typeIiNS_12basic_stringIcNS_11char_traitsIcEENS_9allocatorIcEEEEEEPvEEEENS7_ISC_EEEC1B7v160006ILb1EvEEv, symObjAddr: 0x4C94, symBinAddr: 0x100008524, symSize: 0x2C }
  - { offsetInCU: 0x102BD, offset: 0x102BD, size: 0x8, addend: 0x0, symName: __ZNSt3__117__compressed_pairImNS_22__unordered_map_hasherIiNS_17__hash_value_typeIiNS_12basic_stringIcNS_11char_traitsIcEENS_9allocatorIcEEEEEENS_4hashIiEENS_8equal_toIiEELb1EEEEC1B7v160006IiNS_18__default_init_tagEEEOT_OT0_, symObjAddr: 0x4CC0, symBinAddr: 0x100008550, symSize: 0x3C }
  - { offsetInCU: 0x1031A, offset: 0x1031A, size: 0x8, addend: 0x0, symName: __ZNSt3__117__compressed_pairIfNS_21__unordered_map_equalIiNS_17__hash_value_typeIiNS_12basic_stringIcNS_11char_traitsIcEENS_9allocatorIcEEEEEENS_8equal_toIiEENS_4hashIiEELb1EEEEC1B7v160006IfNS_18__default_init_tagEEEOT_OT0_, symObjAddr: 0x4CFC, symBinAddr: 0x10000858C, symSize: 0x3C }
  - { offsetInCU: 0x10372, offset: 0x10372, size: 0x8, addend: 0x0, symName: __ZNSt3__110unique_ptrIA_PNS_16__hash_node_baseIPNS_11__hash_nodeINS_17__hash_value_typeIiNS_12basic_stringIcNS_11char_traitsIcEENS_9allocatorIcEEEEEEPvEEEENS_25__bucket_list_deallocatorINS7_ISF_EEEEEC2B7v160006ILb1EvEEv, symObjAddr: 0x4D38, symBinAddr: 0x1000085C8, symSize: 0x3C }
  - { offsetInCU: 0x103AC, offset: 0x103AC, size: 0x8, addend: 0x0, symName: __ZNSt3__117__compressed_pairIPPNS_16__hash_node_baseIPNS_11__hash_nodeINS_17__hash_value_typeIiNS_12basic_stringIcNS_11char_traitsIcEENS_9allocatorIcEEEEEEPvEEEENS_25__bucket_list_deallocatorINS7_ISF_EEEEEC1B7v160006INS_16__value_init_tagESM_EEOT_OT0_, symObjAddr: 0x4D74, symBinAddr: 0x100008604, symSize: 0x3C }
  - { offsetInCU: 0x10404, offset: 0x10404, size: 0x8, addend: 0x0, symName: __ZNSt3__117__compressed_pairIPPNS_16__hash_node_baseIPNS_11__hash_nodeINS_17__hash_value_typeIiNS_12basic_stringIcNS_11char_traitsIcEENS_9allocatorIcEEEEEEPvEEEENS_25__bucket_list_deallocatorINS7_ISF_EEEEEC2B7v160006INS_16__value_init_tagESM_EEOT_OT0_, symObjAddr: 0x4DB0, symBinAddr: 0x100008640, symSize: 0x40 }
  - { offsetInCU: 0x1045C, offset: 0x1045C, size: 0x8, addend: 0x0, symName: __ZNSt3__122__compressed_pair_elemIPPNS_16__hash_node_baseIPNS_11__hash_nodeINS_17__hash_value_typeIiNS_12basic_stringIcNS_11char_traitsIcEENS_9allocatorIcEEEEEEPvEEEELi0ELb0EEC2B7v160006ENS_16__value_init_tagE, symObjAddr: 0x4DF0, symBinAddr: 0x100008680, symSize: 0x18 }
  - { offsetInCU: 0x10490, offset: 0x10490, size: 0x8, addend: 0x0, symName: __ZNSt3__122__compressed_pair_elemINS_25__bucket_list_deallocatorINS_9allocatorIPNS_16__hash_node_baseIPNS_11__hash_nodeINS_17__hash_value_typeIiNS_12basic_stringIcNS_11char_traitsIcEENS2_IcEEEEEEPvEEEEEEEELi1ELb0EEC2B7v160006ENS_16__value_init_tagE, symObjAddr: 0x4E08, symBinAddr: 0x100008698, symSize: 0x2C }
  - { offsetInCU: 0x104C4, offset: 0x104C4, size: 0x8, addend: 0x0, symName: __ZNSt3__125__bucket_list_deallocatorINS_9allocatorIPNS_16__hash_node_baseIPNS_11__hash_nodeINS_17__hash_value_typeIiNS_12basic_stringIcNS_11char_traitsIcEENS1_IcEEEEEEPvEEEEEEEC1B7v160006Ev, symObjAddr: 0x4E34, symBinAddr: 0x1000086C4, symSize: 0x2C }
  - { offsetInCU: 0x104EE, offset: 0x104EE, size: 0x8, addend: 0x0, symName: __ZNSt3__125__bucket_list_deallocatorINS_9allocatorIPNS_16__hash_node_baseIPNS_11__hash_nodeINS_17__hash_value_typeIiNS_12basic_stringIcNS_11char_traitsIcEENS1_IcEEEEEEPvEEEEEEEC2B7v160006Ev, symObjAddr: 0x4E60, symBinAddr: 0x1000086F0, symSize: 0x40 }
  - { offsetInCU: 0x10518, offset: 0x10518, size: 0x8, addend: 0x0, symName: __ZNSt3__117__compressed_pairImNS_9allocatorIPNS_16__hash_node_baseIPNS_11__hash_nodeINS_17__hash_value_typeIiNS_12basic_stringIcNS_11char_traitsIcEENS1_IcEEEEEEPvEEEEEEEC1B7v160006IiNS_18__default_init_tagEEEOT_OT0_, symObjAddr: 0x4EA0, symBinAddr: 0x100008730, symSize: 0x3C }
  - { offsetInCU: 0x10570, offset: 0x10570, size: 0x8, addend: 0x0, symName: __ZNSt3__117__compressed_pairImNS_9allocatorIPNS_16__hash_node_baseIPNS_11__hash_nodeINS_17__hash_value_typeIiNS_12basic_stringIcNS_11char_traitsIcEENS1_IcEEEEEEPvEEEEEEEC2B7v160006IiNS_18__default_init_tagEEEOT_OT0_, symObjAddr: 0x4EDC, symBinAddr: 0x10000876C, symSize: 0x40 }
  - { offsetInCU: 0x105C8, offset: 0x105C8, size: 0x8, addend: 0x0, symName: __ZNSt3__122__compressed_pair_elemINS_9allocatorIPNS_16__hash_node_baseIPNS_11__hash_nodeINS_17__hash_value_typeIiNS_12basic_stringIcNS_11char_traitsIcEENS1_IcEEEEEEPvEEEEEELi1ELb1EEC2B7v160006ENS_18__default_init_tagE, symObjAddr: 0x4F1C, symBinAddr: 0x1000087AC, symSize: 0x2C }
  - { offsetInCU: 0x105FC, offset: 0x105FC, size: 0x8, addend: 0x0, symName: __ZNSt3__19allocatorIPNS_16__hash_node_baseIPNS_11__hash_nodeINS_17__hash_value_typeIiNS_12basic_stringIcNS_11char_traitsIcEENS0_IcEEEEEEPvEEEEEC2B7v160006Ev, symObjAddr: 0x4F48, symBinAddr: 0x1000087D8, symSize: 0x2C }
  - { offsetInCU: 0x10626, offset: 0x10626, size: 0x8, addend: 0x0, symName: __ZNSt3__116__non_trivial_ifILb1ENS_9allocatorIPNS_16__hash_node_baseIPNS_11__hash_nodeINS_17__hash_value_typeIiNS_12basic_stringIcNS_11char_traitsIcEENS1_IcEEEEEEPvEEEEEEEC2B7v160006Ev, symObjAddr: 0x4F74, symBinAddr: 0x100008804, symSize: 0x14 }
  - { offsetInCU: 0x10650, offset: 0x10650, size: 0x8, addend: 0x0, symName: __ZNSt3__117__compressed_pairINS_16__hash_node_baseIPNS_11__hash_nodeINS_17__hash_value_typeIiNS_12basic_stringIcNS_11char_traitsIcEENS_9allocatorIcEEEEEEPvEEEENS7_ISC_EEEC2B7v160006ILb1EvEEv, symObjAddr: 0x4F88, symBinAddr: 0x100008818, symSize: 0x34 }
  - { offsetInCU: 0x10685, offset: 0x10685, size: 0x8, addend: 0x0, symName: __ZNSt3__122__compressed_pair_elemINS_16__hash_node_baseIPNS_11__hash_nodeINS_17__hash_value_typeIiNS_12basic_stringIcNS_11char_traitsIcEENS_9allocatorIcEEEEEEPvEEEELi0ELb0EEC2B7v160006ENS_16__value_init_tagE, symObjAddr: 0x4FBC, symBinAddr: 0x10000884C, symSize: 0x2C }
  - { offsetInCU: 0x106B9, offset: 0x106B9, size: 0x8, addend: 0x0, symName: __ZNSt3__122__compressed_pair_elemINS_9allocatorINS_11__hash_nodeINS_17__hash_value_typeIiNS_12basic_stringIcNS_11char_traitsIcEENS1_IcEEEEEEPvEEEELi1ELb1EEC2B7v160006ENS_16__value_init_tagE, symObjAddr: 0x4FE8, symBinAddr: 0x100008878, symSize: 0x2C }
  - { offsetInCU: 0x106ED, offset: 0x106ED, size: 0x8, addend: 0x0, symName: __ZNSt3__116__hash_node_baseIPNS_11__hash_nodeINS_17__hash_value_typeIiNS_12basic_stringIcNS_11char_traitsIcEENS_9allocatorIcEEEEEEPvEEEC1B7v160006Ev, symObjAddr: 0x5014, symBinAddr: 0x1000088A4, symSize: 0x2C }
  - { offsetInCU: 0x10717, offset: 0x10717, size: 0x8, addend: 0x0, symName: __ZNSt3__116__hash_node_baseIPNS_11__hash_nodeINS_17__hash_value_typeIiNS_12basic_stringIcNS_11char_traitsIcEENS_9allocatorIcEEEEEEPvEEEC2B7v160006Ev, symObjAddr: 0x5040, symBinAddr: 0x1000088D0, symSize: 0x18 }
  - { offsetInCU: 0x10741, offset: 0x10741, size: 0x8, addend: 0x0, symName: __ZNSt3__19allocatorINS_11__hash_nodeINS_17__hash_value_typeIiNS_12basic_stringIcNS_11char_traitsIcEENS0_IcEEEEEEPvEEEC2B7v160006Ev, symObjAddr: 0x5058, symBinAddr: 0x1000088E8, symSize: 0x2C }
  - { offsetInCU: 0x1076B, offset: 0x1076B, size: 0x8, addend: 0x0, symName: __ZNSt3__116__non_trivial_ifILb1ENS_9allocatorINS_11__hash_nodeINS_17__hash_value_typeIiNS_12basic_stringIcNS_11char_traitsIcEENS1_IcEEEEEEPvEEEEEC2B7v160006Ev, symObjAddr: 0x5084, symBinAddr: 0x100008914, symSize: 0x14 }
  - { offsetInCU: 0x10795, offset: 0x10795, size: 0x8, addend: 0x0, symName: __ZNSt3__117__compressed_pairImNS_22__unordered_map_hasherIiNS_17__hash_value_typeIiNS_12basic_stringIcNS_11char_traitsIcEENS_9allocatorIcEEEEEENS_4hashIiEENS_8equal_toIiEELb1EEEEC2B7v160006IiNS_18__default_init_tagEEEOT_OT0_, symObjAddr: 0x5098, symBinAddr: 0x100008928, symSize: 0x40 }
  - { offsetInCU: 0x107ED, offset: 0x107ED, size: 0x8, addend: 0x0, symName: __ZNSt3__122__compressed_pair_elemINS_22__unordered_map_hasherIiNS_17__hash_value_typeIiNS_12basic_stringIcNS_11char_traitsIcEENS_9allocatorIcEEEEEENS_4hashIiEENS_8equal_toIiEELb1EEELi1ELb1EEC2B7v160006ENS_18__default_init_tagE, symObjAddr: 0x50D8, symBinAddr: 0x100008968, symSize: 0x2C }
  - { offsetInCU: 0x10821, offset: 0x10821, size: 0x8, addend: 0x0, symName: __ZNSt3__122__unordered_map_hasherIiNS_17__hash_value_typeIiNS_12basic_stringIcNS_11char_traitsIcEENS_9allocatorIcEEEEEENS_4hashIiEENS_8equal_toIiEELb1EEC2B7v160006Ev, symObjAddr: 0x5104, symBinAddr: 0x100008994, symSize: 0x14 }
  - { offsetInCU: 0x1084B, offset: 0x1084B, size: 0x8, addend: 0x0, symName: __ZNSt3__117__compressed_pairIfNS_21__unordered_map_equalIiNS_17__hash_value_typeIiNS_12basic_stringIcNS_11char_traitsIcEENS_9allocatorIcEEEEEENS_8equal_toIiEENS_4hashIiEELb1EEEEC2B7v160006IfNS_18__default_init_tagEEEOT_OT0_, symObjAddr: 0x5118, symBinAddr: 0x1000089A8, symSize: 0x40 }
  - { offsetInCU: 0x108A3, offset: 0x108A3, size: 0x8, addend: 0x0, symName: __ZNSt3__122__compressed_pair_elemIfLi0ELb0EEC2B7v160006IfvEEOT_, symObjAddr: 0x5158, symBinAddr: 0x1000089E8, symSize: 0x24 }
  - { offsetInCU: 0x108E5, offset: 0x108E5, size: 0x8, addend: 0x0, symName: __ZNSt3__122__compressed_pair_elemINS_21__unordered_map_equalIiNS_17__hash_value_typeIiNS_12basic_stringIcNS_11char_traitsIcEENS_9allocatorIcEEEEEENS_8equal_toIiEENS_4hashIiEELb1EEELi1ELb1EEC2B7v160006ENS_18__default_init_tagE, symObjAddr: 0x517C, symBinAddr: 0x100008A0C, symSize: 0x2C }
  - { offsetInCU: 0x10919, offset: 0x10919, size: 0x8, addend: 0x0, symName: __ZNSt3__121__unordered_map_equalIiNS_17__hash_value_typeIiNS_12basic_stringIcNS_11char_traitsIcEENS_9allocatorIcEEEEEENS_8equal_toIiEENS_4hashIiEELb1EEC2B7v160006Ev, symObjAddr: 0x51A8, symBinAddr: 0x100008A38, symSize: 0x14 }
  - { offsetInCU: 0x10943, offset: 0x10943, size: 0x8, addend: 0x0, symName: __ZNSt3__113unordered_mapIiNS_12basic_stringIcNS_11char_traitsIcEENS_9allocatorIcEEEENS_4hashIiEENS_8equal_toIiEENS4_INS_4pairIKiS6_EEEEED2B7v160006Ev, symObjAddr: 0x51BC, symBinAddr: 0x100008A4C, symSize: 0x2C }
  - { offsetInCU: 0x1096D, offset: 0x1096D, size: 0x8, addend: 0x0, symName: __ZNSt3__112__hash_tableINS_17__hash_value_typeIiNS_12basic_stringIcNS_11char_traitsIcEENS_9allocatorIcEEEEEENS_22__unordered_map_hasherIiS8_NS_4hashIiEENS_8equal_toIiEELb1EEENS_21__unordered_map_equalIiS8_SD_SB_Lb1EEENS5_IS8_EEED1Ev, symObjAddr: 0x51E8, symBinAddr: 0x100008A78, symSize: 0x2C }
  - { offsetInCU: 0x10999, offset: 0x10999, size: 0x8, addend: 0x0, symName: __ZNSt3__112__hash_tableINS_17__hash_value_typeIiNS_12basic_stringIcNS_11char_traitsIcEENS_9allocatorIcEEEEEENS_22__unordered_map_hasherIiS8_NS_4hashIiEENS_8equal_toIiEELb1EEENS_21__unordered_map_equalIiS8_SD_SB_Lb1EEENS5_IS8_EEED2Ev, symObjAddr: 0x5214, symBinAddr: 0x100008AA4, symSize: 0x58 }
  - { offsetInCU: 0x109C5, offset: 0x109C5, size: 0x8, addend: 0x0, symName: __ZNSt3__112__hash_tableINS_17__hash_value_typeIiNS_12basic_stringIcNS_11char_traitsIcEENS_9allocatorIcEEEEEENS_22__unordered_map_hasherIiS8_NS_4hashIiEENS_8equal_toIiEELb1EEENS_21__unordered_map_equalIiS8_SD_SB_Lb1EEENS5_IS8_EEE17__deallocate_nodeEPNS_16__hash_node_baseIPNS_11__hash_nodeIS8_PvEEEE, symObjAddr: 0x526C, symBinAddr: 0x100008AFC, symSize: 0xA8 }
  - { offsetInCU: 0x10A2F, offset: 0x10A2F, size: 0x8, addend: 0x0, symName: __ZNSt3__117__compressed_pairINS_16__hash_node_baseIPNS_11__hash_nodeINS_17__hash_value_typeIiNS_12basic_stringIcNS_11char_traitsIcEENS_9allocatorIcEEEEEEPvEEEENS7_ISC_EEE5firstB7v160006Ev, symObjAddr: 0x5314, symBinAddr: 0x100008BA4, symSize: 0x24 }
  - { offsetInCU: 0x10A55, offset: 0x10A55, size: 0x8, addend: 0x0, symName: __ZNSt3__110unique_ptrIA_PNS_16__hash_node_baseIPNS_11__hash_nodeINS_17__hash_value_typeIiNS_12basic_stringIcNS_11char_traitsIcEENS_9allocatorIcEEEEEEPvEEEENS_25__bucket_list_deallocatorINS7_ISF_EEEEED1B7v160006Ev, symObjAddr: 0x5348, symBinAddr: 0x100008BD8, symSize: 0x2C }
  - { offsetInCU: 0x10A7F, offset: 0x10A7F, size: 0x8, addend: 0x0, symName: __ZNSt3__112__hash_tableINS_17__hash_value_typeIiNS_12basic_stringIcNS_11char_traitsIcEENS_9allocatorIcEEEEEENS_22__unordered_map_hasherIiS8_NS_4hashIiEENS_8equal_toIiEELb1EEENS_21__unordered_map_equalIiS8_SD_SB_Lb1EEENS5_IS8_EEE12__node_allocB7v160006Ev, symObjAddr: 0x5374, symBinAddr: 0x100008C04, symSize: 0x28 }
  - { offsetInCU: 0x10AA5, offset: 0x10AA5, size: 0x8, addend: 0x0, symName: __ZNSt3__116__hash_node_baseIPNS_11__hash_nodeINS_17__hash_value_typeIiNS_12basic_stringIcNS_11char_traitsIcEENS_9allocatorIcEEEEEEPvEEE8__upcastB7v160006Ev, symObjAddr: 0x539C, symBinAddr: 0x100008C2C, symSize: 0x24 }
  - { offsetInCU: 0x10ACB, offset: 0x10ACB, size: 0x8, addend: 0x0, symName: __ZNSt3__116allocator_traitsINS_9allocatorINS_11__hash_nodeINS_17__hash_value_typeIiNS_12basic_stringIcNS_11char_traitsIcEENS1_IcEEEEEEPvEEEEE7destroyB7v160006INS_4pairIKiS8_EEvvEEvRSC_PT_, symObjAddr: 0x53C0, symBinAddr: 0x100008C50, symSize: 0x28 }
  - { offsetInCU: 0x10B06, offset: 0x10B06, size: 0x8, addend: 0x0, symName: __ZNSt3__122__hash_key_value_typesINS_17__hash_value_typeIiNS_12basic_stringIcNS_11char_traitsIcEENS_9allocatorIcEEEEEEE9__get_ptrB7v160006ERS8_, symObjAddr: 0x53E8, symBinAddr: 0x100008C78, symSize: 0x24 }
  - { offsetInCU: 0x10B29, offset: 0x10B29, size: 0x8, addend: 0x0, symName: __ZNSt3__116allocator_traitsINS_9allocatorINS_11__hash_nodeINS_17__hash_value_typeIiNS_12basic_stringIcNS_11char_traitsIcEENS1_IcEEEEEEPvEEEEE10deallocateB7v160006ERSC_PSB_m, symObjAddr: 0x540C, symBinAddr: 0x100008C9C, symSize: 0x34 }
  - { offsetInCU: 0x10B6B, offset: 0x10B6B, size: 0x8, addend: 0x0, symName: __ZNSt3__117__compressed_pairINS_16__hash_node_baseIPNS_11__hash_nodeINS_17__hash_value_typeIiNS_12basic_stringIcNS_11char_traitsIcEENS_9allocatorIcEEEEEEPvEEEENS7_ISC_EEE6secondB7v160006Ev, symObjAddr: 0x5440, symBinAddr: 0x100008CD0, symSize: 0x24 }
  - { offsetInCU: 0x10B91, offset: 0x10B91, size: 0x8, addend: 0x0, symName: __ZNSt3__122__compressed_pair_elemINS_9allocatorINS_11__hash_nodeINS_17__hash_value_typeIiNS_12basic_stringIcNS_11char_traitsIcEENS1_IcEEEEEEPvEEEELi1ELb1EE5__getB7v160006Ev, symObjAddr: 0x5464, symBinAddr: 0x100008CF4, symSize: 0x14 }
  - { offsetInCU: 0x10BB7, offset: 0x10BB7, size: 0x8, addend: 0x0, symName: __ZNSt3__114pointer_traitsIPNS_16__hash_node_baseIPNS_11__hash_nodeINS_17__hash_value_typeIiNS_12basic_stringIcNS_11char_traitsIcEENS_9allocatorIcEEEEEEPvEEEEE10pointer_toB7v160006ERSE_, symObjAddr: 0x5478, symBinAddr: 0x100008D08, symSize: 0x14 }
  - { offsetInCU: 0x10BDA, offset: 0x10BDA, size: 0x8, addend: 0x0, symName: __ZNSt3__117__hash_value_typeIiNS_12basic_stringIcNS_11char_traitsIcEENS_9allocatorIcEEEEE11__get_valueB7v160006Ev, symObjAddr: 0x548C, symBinAddr: 0x100008D1C, symSize: 0x14 }
  - { offsetInCU: 0x10C00, offset: 0x10C00, size: 0x8, addend: 0x0, symName: __ZNSt3__19allocatorINS_11__hash_nodeINS_17__hash_value_typeIiNS_12basic_stringIcNS_11char_traitsIcEENS0_IcEEEEEEPvEEE10deallocateB7v160006EPSA_m, symObjAddr: 0x54A0, symBinAddr: 0x100008D30, symSize: 0x44 }
  - { offsetInCU: 0x10C42, offset: 0x10C42, size: 0x8, addend: 0x0, symName: __ZNSt3__122__compressed_pair_elemINS_16__hash_node_baseIPNS_11__hash_nodeINS_17__hash_value_typeIiNS_12basic_stringIcNS_11char_traitsIcEENS_9allocatorIcEEEEEEPvEEEELi0ELb0EE5__getB7v160006Ev, symObjAddr: 0x54E4, symBinAddr: 0x100008D74, symSize: 0x14 }
  - { offsetInCU: 0x10C68, offset: 0x10C68, size: 0x8, addend: 0x0, symName: __ZNSt3__110unique_ptrIA_PNS_16__hash_node_baseIPNS_11__hash_nodeINS_17__hash_value_typeIiNS_12basic_stringIcNS_11char_traitsIcEENS_9allocatorIcEEEEEEPvEEEENS_25__bucket_list_deallocatorINS7_ISF_EEEEED2B7v160006Ev, symObjAddr: 0x54F8, symBinAddr: 0x100008D88, symSize: 0x30 }
  - { offsetInCU: 0x10C92, offset: 0x10C92, size: 0x8, addend: 0x0, symName: __ZNSt3__110unique_ptrIA_PNS_16__hash_node_baseIPNS_11__hash_nodeINS_17__hash_value_typeIiNS_12basic_stringIcNS_11char_traitsIcEENS_9allocatorIcEEEEEEPvEEEENS_25__bucket_list_deallocatorINS7_ISF_EEEEE5resetB7v160006EDn, symObjAddr: 0x5528, symBinAddr: 0x100008DB8, symSize: 0x6C }
  - { offsetInCU: 0x10CD3, offset: 0x10CD3, size: 0x8, addend: 0x0, symName: __ZNSt3__117__compressed_pairIPPNS_16__hash_node_baseIPNS_11__hash_nodeINS_17__hash_value_typeIiNS_12basic_stringIcNS_11char_traitsIcEENS_9allocatorIcEEEEEEPvEEEENS_25__bucket_list_deallocatorINS7_ISF_EEEEE5firstB7v160006Ev, symObjAddr: 0x5594, symBinAddr: 0x100008E24, symSize: 0x24 }
  - { offsetInCU: 0x10CF9, offset: 0x10CF9, size: 0x8, addend: 0x0, symName: __ZNSt3__117__compressed_pairIPPNS_16__hash_node_baseIPNS_11__hash_nodeINS_17__hash_value_typeIiNS_12basic_stringIcNS_11char_traitsIcEENS_9allocatorIcEEEEEEPvEEEENS_25__bucket_list_deallocatorINS7_ISF_EEEEE6secondB7v160006Ev, symObjAddr: 0x55B8, symBinAddr: 0x100008E48, symSize: 0x28 }
  - { offsetInCU: 0x10D1F, offset: 0x10D1F, size: 0x8, addend: 0x0, symName: __ZNSt3__125__bucket_list_deallocatorINS_9allocatorIPNS_16__hash_node_baseIPNS_11__hash_nodeINS_17__hash_value_typeIiNS_12basic_stringIcNS_11char_traitsIcEENS1_IcEEEEEEPvEEEEEEEclB7v160006EPSF_, symObjAddr: 0x55E0, symBinAddr: 0x100008E70, symSize: 0x58 }
  - { offsetInCU: 0x10D54, offset: 0x10D54, size: 0x8, addend: 0x0, symName: __ZNSt3__122__compressed_pair_elemIPPNS_16__hash_node_baseIPNS_11__hash_nodeINS_17__hash_value_typeIiNS_12basic_stringIcNS_11char_traitsIcEENS_9allocatorIcEEEEEEPvEEEELi0ELb0EE5__getB7v160006Ev, symObjAddr: 0x5638, symBinAddr: 0x100008EC8, symSize: 0x14 }
  - { offsetInCU: 0x10D7A, offset: 0x10D7A, size: 0x8, addend: 0x0, symName: __ZNSt3__122__compressed_pair_elemINS_25__bucket_list_deallocatorINS_9allocatorIPNS_16__hash_node_baseIPNS_11__hash_nodeINS_17__hash_value_typeIiNS_12basic_stringIcNS_11char_traitsIcEENS2_IcEEEEEEPvEEEEEEEELi1ELb0EE5__getB7v160006Ev, symObjAddr: 0x564C, symBinAddr: 0x100008EDC, symSize: 0x14 }
  - { offsetInCU: 0x10DA0, offset: 0x10DA0, size: 0x8, addend: 0x0, symName: __ZNSt3__116allocator_traitsINS_9allocatorIPNS_16__hash_node_baseIPNS_11__hash_nodeINS_17__hash_value_typeIiNS_12basic_stringIcNS_11char_traitsIcEENS1_IcEEEEEEPvEEEEEEE10deallocateB7v160006ERSG_PSF_m, symObjAddr: 0x5660, symBinAddr: 0x100008EF0, symSize: 0x34 }
  - { offsetInCU: 0x10DE2, offset: 0x10DE2, size: 0x8, addend: 0x0, symName: __ZNSt3__125__bucket_list_deallocatorINS_9allocatorIPNS_16__hash_node_baseIPNS_11__hash_nodeINS_17__hash_value_typeIiNS_12basic_stringIcNS_11char_traitsIcEENS1_IcEEEEEEPvEEEEEEE7__allocB7v160006Ev, symObjAddr: 0x5694, symBinAddr: 0x100008F24, symSize: 0x24 }
  - { offsetInCU: 0x10E08, offset: 0x10E08, size: 0x8, addend: 0x0, symName: __ZNSt3__125__bucket_list_deallocatorINS_9allocatorIPNS_16__hash_node_baseIPNS_11__hash_nodeINS_17__hash_value_typeIiNS_12basic_stringIcNS_11char_traitsIcEENS1_IcEEEEEEPvEEEEEEE4sizeB7v160006Ev, symObjAddr: 0x56B8, symBinAddr: 0x100008F48, symSize: 0x24 }
  - { offsetInCU: 0x10E2E, offset: 0x10E2E, size: 0x8, addend: 0x0, symName: __ZNSt3__19allocatorIPNS_16__hash_node_baseIPNS_11__hash_nodeINS_17__hash_value_typeIiNS_12basic_stringIcNS_11char_traitsIcEENS0_IcEEEEEEPvEEEEE10deallocateB7v160006EPSE_m, symObjAddr: 0x56DC, symBinAddr: 0x100008F6C, symSize: 0x40 }
  - { offsetInCU: 0x10E70, offset: 0x10E70, size: 0x8, addend: 0x0, symName: __ZNSt3__117__compressed_pairImNS_9allocatorIPNS_16__hash_node_baseIPNS_11__hash_nodeINS_17__hash_value_typeIiNS_12basic_stringIcNS_11char_traitsIcEENS1_IcEEEEEEPvEEEEEEE6secondB7v160006Ev, symObjAddr: 0x571C, symBinAddr: 0x100008FAC, symSize: 0x24 }
  - { offsetInCU: 0x10E96, offset: 0x10E96, size: 0x8, addend: 0x0, symName: __ZNSt3__122__compressed_pair_elemINS_9allocatorIPNS_16__hash_node_baseIPNS_11__hash_nodeINS_17__hash_value_typeIiNS_12basic_stringIcNS_11char_traitsIcEENS1_IcEEEEEEPvEEEEEELi1ELb1EE5__getB7v160006Ev, symObjAddr: 0x5740, symBinAddr: 0x100008FD0, symSize: 0x14 }
  - { offsetInCU: 0x10EBC, offset: 0x10EBC, size: 0x8, addend: 0x0, symName: __ZNSt3__117__compressed_pairImNS_9allocatorIPNS_16__hash_node_baseIPNS_11__hash_nodeINS_17__hash_value_typeIiNS_12basic_stringIcNS_11char_traitsIcEENS1_IcEEEEEEPvEEEEEEE5firstB7v160006Ev, symObjAddr: 0x5754, symBinAddr: 0x100008FE4, symSize: 0x24 }
  - { offsetInCU: 0x10EF6, offset: 0x10EF6, size: 0x8, addend: 0x0, symName: __ZNSt3__112__hash_tableINS_17__hash_value_typeIiNS_12basic_stringIcNS_11char_traitsIcEENS_9allocatorIcEEEEEENS_22__unordered_map_hasherIiS8_NS_4hashIiEENS_8equal_toIiEELb1EEENS_21__unordered_map_equalIiS8_SD_SB_Lb1EEENS5_IS8_EEE25__emplace_unique_key_argsIiJRKNS_21piecewise_construct_tENS_5tupleIJOiEEENSN_IJEEEEEENS_4pairINS_15__hash_iteratorIPNS_11__hash_nodeIS8_PvEEEEbEERKT_DpOT0_, symObjAddr: 0x5778, symBinAddr: 0x100009008, symSize: 0x4D0 }
  - { offsetInCU: 0x11000, offset: 0x11000, size: 0x8, addend: 0x0, symName: __ZNKSt3__115__hash_iteratorIPNS_11__hash_nodeINS_17__hash_value_typeIiNS_12basic_stringIcNS_11char_traitsIcEENS_9allocatorIcEEEEEEPvEEEptB7v160006Ev, symObjAddr: 0x5C78, symBinAddr: 0x100009508, symSize: 0x30 }
  - { offsetInCU: 0x11026, offset: 0x11026, size: 0x8, addend: 0x0, symName: __ZNSt3__112__hash_tableINS_17__hash_value_typeIiNS_12basic_stringIcNS_11char_traitsIcEENS_9allocatorIcEEEEEENS_22__unordered_map_hasherIiS8_NS_4hashIiEENS_8equal_toIiEELb1EEENS_21__unordered_map_equalIiS8_SD_SB_Lb1EEENS5_IS8_EEE13hash_functionB7v160006Ev, symObjAddr: 0x5CA8, symBinAddr: 0x100009538, symSize: 0x28 }
  - { offsetInCU: 0x1104C, offset: 0x1104C, size: 0x8, addend: 0x0, symName: __ZNKSt3__122__unordered_map_hasherIiNS_17__hash_value_typeIiNS_12basic_stringIcNS_11char_traitsIcEENS_9allocatorIcEEEEEENS_4hashIiEENS_8equal_toIiEELb1EEclB7v160006ERKi, symObjAddr: 0x5CD0, symBinAddr: 0x100009560, symSize: 0x30 }
  - { offsetInCU: 0x11081, offset: 0x11081, size: 0x8, addend: 0x0, symName: __ZNKSt3__112__hash_tableINS_17__hash_value_typeIiNS_12basic_stringIcNS_11char_traitsIcEENS_9allocatorIcEEEEEENS_22__unordered_map_hasherIiS8_NS_4hashIiEENS_8equal_toIiEELb1EEENS_21__unordered_map_equalIiS8_SD_SB_Lb1EEENS5_IS8_EEE12bucket_countB7v160006Ev, symObjAddr: 0x5D00, symBinAddr: 0x100009590, symSize: 0x28 }
  - { offsetInCU: 0x110A7, offset: 0x110A7, size: 0x8, addend: 0x0, symName: __ZNKSt3__110unique_ptrIA_PNS_16__hash_node_baseIPNS_11__hash_nodeINS_17__hash_value_typeIiNS_12basic_stringIcNS_11char_traitsIcEENS_9allocatorIcEEEEEEPvEEEENS_25__bucket_list_deallocatorINS7_ISF_EEEEEixB7v160006Em, symObjAddr: 0x5DC0, symBinAddr: 0x100009650, symSize: 0x34 }
  - { offsetInCU: 0x110DC, offset: 0x110DC, size: 0x8, addend: 0x0, symName: __ZNKSt3__116__hash_node_baseIPNS_11__hash_nodeINS_17__hash_value_typeIiNS_12basic_stringIcNS_11char_traitsIcEENS_9allocatorIcEEEEEEPvEEE6__hashB7v160006Ev, symObjAddr: 0x5DF4, symBinAddr: 0x100009684, symSize: 0x18 }
  - { offsetInCU: 0x11102, offset: 0x11102, size: 0x8, addend: 0x0, symName: __ZNSt3__112__hash_tableINS_17__hash_value_typeIiNS_12basic_stringIcNS_11char_traitsIcEENS_9allocatorIcEEEEEENS_22__unordered_map_hasherIiS8_NS_4hashIiEENS_8equal_toIiEELb1EEENS_21__unordered_map_equalIiS8_SD_SB_Lb1EEENS5_IS8_EEE6key_eqB7v160006Ev, symObjAddr: 0x5E0C, symBinAddr: 0x10000969C, symSize: 0x28 }
  - { offsetInCU: 0x11128, offset: 0x11128, size: 0x8, addend: 0x0, symName: __ZNKSt3__121__unordered_map_equalIiNS_17__hash_value_typeIiNS_12basic_stringIcNS_11char_traitsIcEENS_9allocatorIcEEEEEENS_8equal_toIiEENS_4hashIiEELb1EEclB7v160006ERKS8_RKi, symObjAddr: 0x5E34, symBinAddr: 0x1000096C4, symSize: 0x48 }
  - { offsetInCU: 0x1116C, offset: 0x1116C, size: 0x8, addend: 0x0, symName: __ZNSt3__112__hash_tableINS_17__hash_value_typeIiNS_12basic_stringIcNS_11char_traitsIcEENS_9allocatorIcEEEEEENS_22__unordered_map_hasherIiS8_NS_4hashIiEENS_8equal_toIiEELb1EEENS_21__unordered_map_equalIiS8_SD_SB_Lb1EEENS5_IS8_EEE21__construct_node_hashIRKNS_21piecewise_construct_tEJNS_5tupleIJOiEEENSN_IJEEEEEENS_10unique_ptrINS_11__hash_nodeIS8_PvEENS_22__hash_node_destructorINS5_ISU_EEEEEEmOT_DpOT0_, symObjAddr: 0x5E7C, symBinAddr: 0x10000970C, symSize: 0x150 }
  - { offsetInCU: 0x11208, offset: 0x11208, size: 0x8, addend: 0x0, symName: __ZNSt3__112__hash_tableINS_17__hash_value_typeIiNS_12basic_stringIcNS_11char_traitsIcEENS_9allocatorIcEEEEEENS_22__unordered_map_hasherIiS8_NS_4hashIiEENS_8equal_toIiEELb1EEENS_21__unordered_map_equalIiS8_SD_SB_Lb1EEENS5_IS8_EEE4sizeB7v160006Ev, symObjAddr: 0x5FCC, symBinAddr: 0x10000985C, symSize: 0x28 }
  - { offsetInCU: 0x1122E, offset: 0x1122E, size: 0x8, addend: 0x0, symName: __ZNSt3__112__hash_tableINS_17__hash_value_typeIiNS_12basic_stringIcNS_11char_traitsIcEENS_9allocatorIcEEEEEENS_22__unordered_map_hasherIiS8_NS_4hashIiEENS_8equal_toIiEELb1EEENS_21__unordered_map_equalIiS8_SD_SB_Lb1EEENS5_IS8_EEE15max_load_factorB7v160006Ev, symObjAddr: 0x5FF4, symBinAddr: 0x100009884, symSize: 0x28 }
  - { offsetInCU: 0x11254, offset: 0x11254, size: 0x8, addend: 0x0, symName: __ZNSt3__112__hash_tableINS_17__hash_value_typeIiNS_12basic_stringIcNS_11char_traitsIcEENS_9allocatorIcEEEEEENS_22__unordered_map_hasherIiS8_NS_4hashIiEENS_8equal_toIiEELb1EEENS_21__unordered_map_equalIiS8_SD_SB_Lb1EEENS5_IS8_EEE15__rehash_uniqueB7v160006Em, symObjAddr: 0x601C, symBinAddr: 0x1000098AC, symSize: 0x2C }
  - { offsetInCU: 0x11288, offset: 0x11288, size: 0x8, addend: 0x0, symName: __Z4ceilB7v160006f, symObjAddr: 0x60C4, symBinAddr: 0x100009954, symSize: 0x18 }
  - { offsetInCU: 0x112B7, offset: 0x112B7, size: 0x8, addend: 0x0, symName: __ZNSt3__116__hash_node_baseIPNS_11__hash_nodeINS_17__hash_value_typeIiNS_12basic_stringIcNS_11char_traitsIcEENS_9allocatorIcEEEEEEPvEEE5__ptrB7v160006Ev, symObjAddr: 0x60DC, symBinAddr: 0x10000996C, symSize: 0x24 }
  - { offsetInCU: 0x112DD, offset: 0x112DD, size: 0x8, addend: 0x0, symName: __ZNKSt3__110unique_ptrINS_11__hash_nodeINS_17__hash_value_typeIiNS_12basic_stringIcNS_11char_traitsIcEENS_9allocatorIcEEEEEEPvEENS_22__hash_node_destructorINS6_ISB_EEEEEptB7v160006Ev, symObjAddr: 0x6100, symBinAddr: 0x100009990, symSize: 0x28 }
  - { offsetInCU: 0x11303, offset: 0x11303, size: 0x8, addend: 0x0, symName: __ZNKSt3__110unique_ptrINS_11__hash_nodeINS_17__hash_value_typeIiNS_12basic_stringIcNS_11char_traitsIcEENS_9allocatorIcEEEEEEPvEENS_22__hash_node_destructorINS6_ISB_EEEEE3getB7v160006Ev, symObjAddr: 0x6128, symBinAddr: 0x1000099B8, symSize: 0x28 }
  - { offsetInCU: 0x11329, offset: 0x11329, size: 0x8, addend: 0x0, symName: __ZNSt3__110unique_ptrINS_11__hash_nodeINS_17__hash_value_typeIiNS_12basic_stringIcNS_11char_traitsIcEENS_9allocatorIcEEEEEEPvEENS_22__hash_node_destructorINS6_ISB_EEEEE7releaseB7v160006Ev, symObjAddr: 0x6150, symBinAddr: 0x1000099E0, symSize: 0x44 }
  - { offsetInCU: 0x1135E, offset: 0x1135E, size: 0x8, addend: 0x0, symName: __ZNSt3__110unique_ptrINS_11__hash_nodeINS_17__hash_value_typeIiNS_12basic_stringIcNS_11char_traitsIcEENS_9allocatorIcEEEEEEPvEENS_22__hash_node_destructorINS6_ISB_EEEEED1B7v160006Ev, symObjAddr: 0x6194, symBinAddr: 0x100009A24, symSize: 0x2C }
  - { offsetInCU: 0x11388, offset: 0x11388, size: 0x8, addend: 0x0, symName: __ZNSt3__115__hash_iteratorIPNS_11__hash_nodeINS_17__hash_value_typeIiNS_12basic_stringIcNS_11char_traitsIcEENS_9allocatorIcEEEEEEPvEEEC1B7v160006EPNS_16__hash_node_baseISC_EEPKv, symObjAddr: 0x61C0, symBinAddr: 0x100009A50, symSize: 0x3C }
  - { offsetInCU: 0x113DA, offset: 0x113DA, size: 0x8, addend: 0x0, symName: __ZNSt3__14pairINS_15__hash_iteratorIPNS_11__hash_nodeINS_17__hash_value_typeIiNS_12basic_stringIcNS_11char_traitsIcEENS_9allocatorIcEEEEEEPvEEEEbEC1B7v160006ISE_RbLSB_0EEEOT_OT0_, symObjAddr: 0x61FC, symBinAddr: 0x100009A8C, symSize: 0x3C }
  - { offsetInCU: 0x11438, offset: 0x11438, size: 0x8, addend: 0x0, symName: __ZNSt3__117__compressed_pairImNS_22__unordered_map_hasherIiNS_17__hash_value_typeIiNS_12basic_stringIcNS_11char_traitsIcEENS_9allocatorIcEEEEEENS_4hashIiEENS_8equal_toIiEELb1EEEE6secondB7v160006Ev, symObjAddr: 0x6238, symBinAddr: 0x100009AC8, symSize: 0x24 }
  - { offsetInCU: 0x1145E, offset: 0x1145E, size: 0x8, addend: 0x0, symName: __ZNSt3__122__compressed_pair_elemINS_22__unordered_map_hasherIiNS_17__hash_value_typeIiNS_12basic_stringIcNS_11char_traitsIcEENS_9allocatorIcEEEEEENS_4hashIiEENS_8equal_toIiEELb1EEELi1ELb1EE5__getB7v160006Ev, symObjAddr: 0x625C, symBinAddr: 0x100009AEC, symSize: 0x14 }
  - { offsetInCU: 0x11484, offset: 0x11484, size: 0x8, addend: 0x0, symName: __ZNKSt3__14hashIiEclB7v160006Ei, symObjAddr: 0x6270, symBinAddr: 0x100009B00, symSize: 0x18 }
  - { offsetInCU: 0x114B9, offset: 0x114B9, size: 0x8, addend: 0x0, symName: __ZNKSt3__110unique_ptrIA_PNS_16__hash_node_baseIPNS_11__hash_nodeINS_17__hash_value_typeIiNS_12basic_stringIcNS_11char_traitsIcEENS_9allocatorIcEEEEEEPvEEEENS_25__bucket_list_deallocatorINS7_ISF_EEEEE11get_deleterB7v160006Ev, symObjAddr: 0x6288, symBinAddr: 0x100009B18, symSize: 0x24 }
  - { offsetInCU: 0x114DF, offset: 0x114DF, size: 0x8, addend: 0x0, symName: __ZNKSt3__125__bucket_list_deallocatorINS_9allocatorIPNS_16__hash_node_baseIPNS_11__hash_nodeINS_17__hash_value_typeIiNS_12basic_stringIcNS_11char_traitsIcEENS1_IcEEEEEEPvEEEEEEE4sizeB7v160006Ev, symObjAddr: 0x62AC, symBinAddr: 0x100009B3C, symSize: 0x28 }
  - { offsetInCU: 0x11505, offset: 0x11505, size: 0x8, addend: 0x0, symName: __ZNKSt3__117__compressed_pairIPPNS_16__hash_node_baseIPNS_11__hash_nodeINS_17__hash_value_typeIiNS_12basic_stringIcNS_11char_traitsIcEENS_9allocatorIcEEEEEEPvEEEENS_25__bucket_list_deallocatorINS7_ISF_EEEEE6secondB7v160006Ev, symObjAddr: 0x62D4, symBinAddr: 0x100009B64, symSize: 0x28 }
  - { offsetInCU: 0x1152B, offset: 0x1152B, size: 0x8, addend: 0x0, symName: __ZNKSt3__122__compressed_pair_elemINS_25__bucket_list_deallocatorINS_9allocatorIPNS_16__hash_node_baseIPNS_11__hash_nodeINS_17__hash_value_typeIiNS_12basic_stringIcNS_11char_traitsIcEENS2_IcEEEEEEPvEEEEEEEELi1ELb0EE5__getB7v160006Ev, symObjAddr: 0x62FC, symBinAddr: 0x100009B8C, symSize: 0x14 }
  - { offsetInCU: 0x11551, offset: 0x11551, size: 0x8, addend: 0x0, symName: __ZNKSt3__117__compressed_pairImNS_9allocatorIPNS_16__hash_node_baseIPNS_11__hash_nodeINS_17__hash_value_typeIiNS_12basic_stringIcNS_11char_traitsIcEENS1_IcEEEEEEPvEEEEEEE5firstB7v160006Ev, symObjAddr: 0x6310, symBinAddr: 0x100009BA0, symSize: 0x24 }
  - { offsetInCU: 0x11577, offset: 0x11577, size: 0x8, addend: 0x0, symName: __ZNKSt3__117__compressed_pairIPPNS_16__hash_node_baseIPNS_11__hash_nodeINS_17__hash_value_typeIiNS_12basic_stringIcNS_11char_traitsIcEENS_9allocatorIcEEEEEEPvEEEENS_25__bucket_list_deallocatorINS7_ISF_EEEEE5firstB7v160006Ev, symObjAddr: 0x6334, symBinAddr: 0x100009BC4, symSize: 0x24 }
  - { offsetInCU: 0x1159D, offset: 0x1159D, size: 0x8, addend: 0x0, symName: __ZNKSt3__122__compressed_pair_elemIPPNS_16__hash_node_baseIPNS_11__hash_nodeINS_17__hash_value_typeIiNS_12basic_stringIcNS_11char_traitsIcEENS_9allocatorIcEEEEEEPvEEEELi0ELb0EE5__getB7v160006Ev, symObjAddr: 0x6358, symBinAddr: 0x100009BE8, symSize: 0x14 }
  - { offsetInCU: 0x115C3, offset: 0x115C3, size: 0x8, addend: 0x0, symName: __ZNSt3__117__compressed_pairIfNS_21__unordered_map_equalIiNS_17__hash_value_typeIiNS_12basic_stringIcNS_11char_traitsIcEENS_9allocatorIcEEEEEENS_8equal_toIiEENS_4hashIiEELb1EEEE6secondB7v160006Ev, symObjAddr: 0x636C, symBinAddr: 0x100009BFC, symSize: 0x24 }
  - { offsetInCU: 0x115E9, offset: 0x115E9, size: 0x8, addend: 0x0, symName: __ZNSt3__122__compressed_pair_elemINS_21__unordered_map_equalIiNS_17__hash_value_typeIiNS_12basic_stringIcNS_11char_traitsIcEENS_9allocatorIcEEEEEENS_8equal_toIiEENS_4hashIiEELb1EEELi1ELb1EE5__getB7v160006Ev, symObjAddr: 0x6390, symBinAddr: 0x100009C20, symSize: 0x14 }
  - { offsetInCU: 0x1160F, offset: 0x1160F, size: 0x8, addend: 0x0, symName: __ZNKSt3__18equal_toIiEclB7v160006ERKiS3_, symObjAddr: 0x63A4, symBinAddr: 0x100009C34, symSize: 0x34 }
  - { offsetInCU: 0x11653, offset: 0x11653, size: 0x8, addend: 0x0, symName: __ZNKSt3__117__hash_value_typeIiNS_12basic_stringIcNS_11char_traitsIcEENS_9allocatorIcEEEEE11__get_valueB7v160006Ev, symObjAddr: 0x63D8, symBinAddr: 0x100009C68, symSize: 0x14 }
  - { offsetInCU: 0x11679, offset: 0x11679, size: 0x8, addend: 0x0, symName: __ZNSt3__116allocator_traitsINS_9allocatorINS_11__hash_nodeINS_17__hash_value_typeIiNS_12basic_stringIcNS_11char_traitsIcEENS1_IcEEEEEEPvEEEEE8allocateB7v160006ERSC_m, symObjAddr: 0x63EC, symBinAddr: 0x100009C7C, symSize: 0x2C }
  - { offsetInCU: 0x116AC, offset: 0x116AC, size: 0x8, addend: 0x0, symName: __ZNSt3__122__hash_node_destructorINS_9allocatorINS_11__hash_nodeINS_17__hash_value_typeIiNS_12basic_stringIcNS_11char_traitsIcEENS1_IcEEEEEEPvEEEEEC1B7v160006ERSC_b, symObjAddr: 0x6418, symBinAddr: 0x100009CA8, symSize: 0x48 }
  - { offsetInCU: 0x116F9, offset: 0x116F9, size: 0x8, addend: 0x0, symName: __ZNSt3__110unique_ptrINS_11__hash_nodeINS_17__hash_value_typeIiNS_12basic_stringIcNS_11char_traitsIcEENS_9allocatorIcEEEEEEPvEENS_22__hash_node_destructorINS6_ISB_EEEEEC1B7v160006ILb1EvEEPSB_NS_16__dependent_typeINS_27__unique_ptr_deleter_sfinaeISE_EEXT_EE20__good_rval_ref_typeE, symObjAddr: 0x6460, symBinAddr: 0x100009CF0, symSize: 0x3C }
  - { offsetInCU: 0x1174A, offset: 0x1174A, size: 0x8, addend: 0x0, symName: __ZNSt3__116allocator_traitsINS_9allocatorINS_11__hash_nodeINS_17__hash_value_typeIiNS_12basic_stringIcNS_11char_traitsIcEENS1_IcEEEEEEPvEEEEE9constructB7v160006INS_4pairIKiS8_EEJRKNS_21piecewise_construct_tENS_5tupleIJOiEEENSL_IJEEEEvEEvRSC_PT_DpOT0_, symObjAddr: 0x649C, symBinAddr: 0x100009D2C, symSize: 0x44 }
  - { offsetInCU: 0x117C9, offset: 0x117C9, size: 0x8, addend: 0x0, symName: __ZNSt3__110unique_ptrINS_11__hash_nodeINS_17__hash_value_typeIiNS_12basic_stringIcNS_11char_traitsIcEENS_9allocatorIcEEEEEEPvEENS_22__hash_node_destructorINS6_ISB_EEEEE11get_deleterB7v160006Ev, symObjAddr: 0x64E0, symBinAddr: 0x100009D70, symSize: 0x24 }
  - { offsetInCU: 0x117EF, offset: 0x117EF, size: 0x8, addend: 0x0, symName: __ZNSt3__19allocatorINS_11__hash_nodeINS_17__hash_value_typeIiNS_12basic_stringIcNS_11char_traitsIcEENS0_IcEEEEEEPvEEE8allocateB7v160006Em, symObjAddr: 0x6504, symBinAddr: 0x100009D94, symSize: 0x5C }
  - { offsetInCU: 0x1182D, offset: 0x1182D, size: 0x8, addend: 0x0, symName: __ZNSt3__116allocator_traitsINS_9allocatorINS_11__hash_nodeINS_17__hash_value_typeIiNS_12basic_stringIcNS_11char_traitsIcEENS1_IcEEEEEEPvEEEEE8max_sizeB7v160006ISC_vEEmRKSC_, symObjAddr: 0x6560, symBinAddr: 0x100009DF0, symSize: 0x24 }
  - { offsetInCU: 0x1185B, offset: 0x1185B, size: 0x8, addend: 0x0, symName: __ZNKSt3__19allocatorINS_11__hash_nodeINS_17__hash_value_typeIiNS_12basic_stringIcNS_11char_traitsIcEENS0_IcEEEEEEPvEEE8max_sizeB7v160006Ev, symObjAddr: 0x6584, symBinAddr: 0x100009E14, symSize: 0x18 }
  - { offsetInCU: 0x11881, offset: 0x11881, size: 0x8, addend: 0x0, symName: __ZNSt3__122__hash_node_destructorINS_9allocatorINS_11__hash_nodeINS_17__hash_value_typeIiNS_12basic_stringIcNS_11char_traitsIcEENS1_IcEEEEEEPvEEEEEC2B7v160006ERSC_b, symObjAddr: 0x659C, symBinAddr: 0x100009E2C, symSize: 0x38 }
  - { offsetInCU: 0x118C9, offset: 0x118C9, size: 0x8, addend: 0x0, symName: __ZNSt3__110unique_ptrINS_11__hash_nodeINS_17__hash_value_typeIiNS_12basic_stringIcNS_11char_traitsIcEENS_9allocatorIcEEEEEEPvEENS_22__hash_node_destructorINS6_ISB_EEEEEC2B7v160006ILb1EvEEPSB_NS_16__dependent_typeINS_27__unique_ptr_deleter_sfinaeISE_EEXT_EE20__good_rval_ref_typeE, symObjAddr: 0x65D4, symBinAddr: 0x100009E64, symSize: 0x48 }
  - { offsetInCU: 0x1191A, offset: 0x1191A, size: 0x8, addend: 0x0, symName: __ZNSt3__117__compressed_pairIPNS_11__hash_nodeINS_17__hash_value_typeIiNS_12basic_stringIcNS_11char_traitsIcEENS_9allocatorIcEEEEEEPvEENS_22__hash_node_destructorINS6_ISB_EEEEEC1B7v160006IRSC_SF_EEOT_OT0_, symObjAddr: 0x661C, symBinAddr: 0x100009EAC, symSize: 0x3C }
  - { offsetInCU: 0x11972, offset: 0x11972, size: 0x8, addend: 0x0, symName: __ZNSt3__117__compressed_pairIPNS_11__hash_nodeINS_17__hash_value_typeIiNS_12basic_stringIcNS_11char_traitsIcEENS_9allocatorIcEEEEEEPvEENS_22__hash_node_destructorINS6_ISB_EEEEEC2B7v160006IRSC_SF_EEOT_OT0_, symObjAddr: 0x6658, symBinAddr: 0x100009EE8, symSize: 0x48 }
  - { offsetInCU: 0x119CA, offset: 0x119CA, size: 0x8, addend: 0x0, symName: __ZNSt3__122__compressed_pair_elemIPNS_11__hash_nodeINS_17__hash_value_typeIiNS_12basic_stringIcNS_11char_traitsIcEENS_9allocatorIcEEEEEEPvEELi0ELb0EEC2B7v160006IRSC_vEEOT_, symObjAddr: 0x66A0, symBinAddr: 0x100009F30, symSize: 0x24 }
  - { offsetInCU: 0x11A0C, offset: 0x11A0C, size: 0x8, addend: 0x0, symName: __ZNSt3__122__compressed_pair_elemINS_22__hash_node_destructorINS_9allocatorINS_11__hash_nodeINS_17__hash_value_typeIiNS_12basic_stringIcNS_11char_traitsIcEENS2_IcEEEEEEPvEEEEEELi1ELb0EEC2B7v160006ISE_vEEOT_, symObjAddr: 0x66C4, symBinAddr: 0x100009F54, symSize: 0x24 }
  - { offsetInCU: 0x11A4E, offset: 0x11A4E, size: 0x8, addend: 0x0, symName: __ZNSt3__19allocatorINS_11__hash_nodeINS_17__hash_value_typeIiNS_12basic_stringIcNS_11char_traitsIcEENS0_IcEEEEEEPvEEE9constructB7v160006INS_4pairIKiS7_EEJRKNS_21piecewise_construct_tENS_5tupleIJOiEEENSJ_IJEEEEEEvPT_DpOT0_, symObjAddr: 0x66E8, symBinAddr: 0x100009F78, symSize: 0x44 }
  - { offsetInCU: 0x11ACA, offset: 0x11ACA, size: 0x8, addend: 0x0, symName: __ZNSt3__14pairIKiNS_12basic_stringIcNS_11char_traitsIcEENS_9allocatorIcEEEEEC1B7v160006IJOiEJEEENS_21piecewise_construct_tENS_5tupleIJDpT_EEENSC_IJDpT0_EEE, symObjAddr: 0x672C, symBinAddr: 0x100009FBC, symSize: 0x44 }
  - { offsetInCU: 0x11B31, offset: 0x11B31, size: 0x8, addend: 0x0, symName: __ZNSt3__14pairIKiNS_12basic_stringIcNS_11char_traitsIcEENS_9allocatorIcEEEEEC1B7v160006IJOiEJEJLm0EEJEEENS_21piecewise_construct_tERNS_5tupleIJDpT_EEERNSC_IJDpT0_EEENS_15__tuple_indicesIJXspT1_EEEENSL_IJXspT2_EEEE, symObjAddr: 0x6770, symBinAddr: 0x10000A000, symSize: 0x3C }
  - { offsetInCU: 0x11BC1, offset: 0x11BC1, size: 0x8, addend: 0x0, symName: __ZNSt3__14pairIKiNS_12basic_stringIcNS_11char_traitsIcEENS_9allocatorIcEEEEEC2B7v160006IJOiEJEJLm0EEJEEENS_21piecewise_construct_tERNS_5tupleIJDpT_EEERNSC_IJDpT0_EEENS_15__tuple_indicesIJXspT1_EEEENSL_IJXspT2_EEEE, symObjAddr: 0x67AC, symBinAddr: 0x10000A03C, symSize: 0x4C }
  - { offsetInCU: 0x11C51, offset: 0x11C51, size: 0x8, addend: 0x0, symName: __ZNSt3__112basic_stringIcNS_11char_traitsIcEENS_9allocatorIcEEEC1B7v160006Ev, symObjAddr: 0x681C, symBinAddr: 0x10000A0AC, symSize: 0x2C }
  - { offsetInCU: 0x11C7B, offset: 0x11C7B, size: 0x8, addend: 0x0, symName: __ZNSt3__112__tuple_leafILm0EOiLb0EE3getB7v160006Ev, symObjAddr: 0x6848, symBinAddr: 0x10000A0D8, symSize: 0x18 }
  - { offsetInCU: 0x11CA1, offset: 0x11CA1, size: 0x8, addend: 0x0, symName: __ZNSt3__112basic_stringIcNS_11char_traitsIcEENS_9allocatorIcEEEC2B7v160006Ev, symObjAddr: 0x6860, symBinAddr: 0x10000A0F0, symSize: 0x50 }
  - { offsetInCU: 0x11CCB, offset: 0x11CCB, size: 0x8, addend: 0x0, symName: __ZNSt3__112basic_stringIcNS_11char_traitsIcEENS_9allocatorIcEEE14__default_initB7v160006Ev, symObjAddr: 0x68B0, symBinAddr: 0x10000A140, symSize: 0x40 }
  - { offsetInCU: 0x11CF1, offset: 0x11CF1, size: 0x8, addend: 0x0, symName: __ZNSt3__117__compressed_pairINS_12basic_stringIcNS_11char_traitsIcEENS_9allocatorIcEEE5__repES5_E5firstB7v160006Ev, symObjAddr: 0x68F0, symBinAddr: 0x10000A180, symSize: 0x24 }
  - { offsetInCU: 0x11D17, offset: 0x11D17, size: 0x8, addend: 0x0, symName: __ZNSt3__122__compressed_pair_elemINS_12basic_stringIcNS_11char_traitsIcEENS_9allocatorIcEEE5__repELi0ELb0EE5__getB7v160006Ev, symObjAddr: 0x6914, symBinAddr: 0x10000A1A4, symSize: 0x14 }
  - { offsetInCU: 0x11D3D, offset: 0x11D3D, size: 0x8, addend: 0x0, symName: __ZNSt3__117__compressed_pairIPNS_11__hash_nodeINS_17__hash_value_typeIiNS_12basic_stringIcNS_11char_traitsIcEENS_9allocatorIcEEEEEEPvEENS_22__hash_node_destructorINS6_ISB_EEEEE6secondB7v160006Ev, symObjAddr: 0x6928, symBinAddr: 0x10000A1B8, symSize: 0x28 }
  - { offsetInCU: 0x11D63, offset: 0x11D63, size: 0x8, addend: 0x0, symName: __ZNSt3__122__compressed_pair_elemINS_22__hash_node_destructorINS_9allocatorINS_11__hash_nodeINS_17__hash_value_typeIiNS_12basic_stringIcNS_11char_traitsIcEENS2_IcEEEEEEPvEEEEEELi1ELb0EE5__getB7v160006Ev, symObjAddr: 0x6950, symBinAddr: 0x10000A1E0, symSize: 0x14 }
  - { offsetInCU: 0x11D89, offset: 0x11D89, size: 0x8, addend: 0x0, symName: __ZNSt3__117__compressed_pairImNS_22__unordered_map_hasherIiNS_17__hash_value_typeIiNS_12basic_stringIcNS_11char_traitsIcEENS_9allocatorIcEEEEEENS_4hashIiEENS_8equal_toIiEELb1EEEE5firstB7v160006Ev, symObjAddr: 0x6964, symBinAddr: 0x10000A1F4, symSize: 0x24 }
  - { offsetInCU: 0x11DAF, offset: 0x11DAF, size: 0x8, addend: 0x0, symName: __ZNSt3__117__compressed_pairIfNS_21__unordered_map_equalIiNS_17__hash_value_typeIiNS_12basic_stringIcNS_11char_traitsIcEENS_9allocatorIcEEEEEENS_8equal_toIiEENS_4hashIiEELb1EEEE5firstB7v160006Ev, symObjAddr: 0x6988, symBinAddr: 0x10000A218, symSize: 0x24 }
  - { offsetInCU: 0x11DD5, offset: 0x11DD5, size: 0x8, addend: 0x0, symName: __ZNSt3__122__compressed_pair_elemIfLi0ELb0EE5__getB7v160006Ev, symObjAddr: 0x69AC, symBinAddr: 0x10000A23C, symSize: 0x14 }
  - { offsetInCU: 0x11DFB, offset: 0x11DFB, size: 0x8, addend: 0x0, symName: __ZNSt3__112__hash_tableINS_17__hash_value_typeIiNS_12basic_stringIcNS_11char_traitsIcEENS_9allocatorIcEEEEEENS_22__unordered_map_hasherIiS8_NS_4hashIiEENS_8equal_toIiEELb1EEENS_21__unordered_map_equalIiS8_SD_SB_Lb1EEENS5_IS8_EEE8__rehashILb1EEEvm, symObjAddr: 0x69C0, symBinAddr: 0x10000A250, symSize: 0x1A8 }
  - { offsetInCU: 0x11E4B, offset: 0x11E4B, size: 0x8, addend: 0x0, symName: __ZNSt3__112__hash_tableINS_17__hash_value_typeIiNS_12basic_stringIcNS_11char_traitsIcEENS_9allocatorIcEEEEEENS_22__unordered_map_hasherIiS8_NS_4hashIiEENS_8equal_toIiEELb1EEENS_21__unordered_map_equalIiS8_SD_SB_Lb1EEENS5_IS8_EEE11__do_rehashILb1EEEvm, symObjAddr: 0x6B68, symBinAddr: 0x10000A3F8, symSize: 0x290 }
  - { offsetInCU: 0x11F32, offset: 0x11F32, size: 0x8, addend: 0x0, symName: __ZNSt3__110unique_ptrIA_PNS_16__hash_node_baseIPNS_11__hash_nodeINS_17__hash_value_typeIiNS_12basic_stringIcNS_11char_traitsIcEENS_9allocatorIcEEEEEEPvEEEENS_25__bucket_list_deallocatorINS7_ISF_EEEEE11get_deleterB7v160006Ev, symObjAddr: 0x6E74, symBinAddr: 0x10000A704, symSize: 0x24 }
  - { offsetInCU: 0x11F58, offset: 0x11F58, size: 0x8, addend: 0x0, symName: __ZNSt3__110unique_ptrIA_PNS_16__hash_node_baseIPNS_11__hash_nodeINS_17__hash_value_typeIiNS_12basic_stringIcNS_11char_traitsIcEENS_9allocatorIcEEEEEEPvEEEENS_25__bucket_list_deallocatorINS7_ISF_EEEEE5resetB7v160006IPSF_EENS_9enable_ifIXsr28_CheckArrayPointerConversionIT_EE5valueEvE4typeESO_, symObjAddr: 0x6E98, symBinAddr: 0x10000A728, symSize: 0x78 }
  - { offsetInCU: 0x11FA5, offset: 0x11FA5, size: 0x8, addend: 0x0, symName: __ZNSt3__116allocator_traitsINS_9allocatorIPNS_16__hash_node_baseIPNS_11__hash_nodeINS_17__hash_value_typeIiNS_12basic_stringIcNS_11char_traitsIcEENS1_IcEEEEEEPvEEEEEEE8allocateB7v160006ERSG_m, symObjAddr: 0x6F10, symBinAddr: 0x10000A7A0, symSize: 0x2C }
  - { offsetInCU: 0x11FD8, offset: 0x11FD8, size: 0x8, addend: 0x0, symName: __ZNSt3__19allocatorIPNS_16__hash_node_baseIPNS_11__hash_nodeINS_17__hash_value_typeIiNS_12basic_stringIcNS_11char_traitsIcEENS0_IcEEEEEEPvEEEEE8allocateB7v160006Em, symObjAddr: 0x6F3C, symBinAddr: 0x10000A7CC, symSize: 0x58 }
  - { offsetInCU: 0x12016, offset: 0x12016, size: 0x8, addend: 0x0, symName: __ZNSt3__116allocator_traitsINS_9allocatorIPNS_16__hash_node_baseIPNS_11__hash_nodeINS_17__hash_value_typeIiNS_12basic_stringIcNS_11char_traitsIcEENS1_IcEEEEEEPvEEEEEEE8max_sizeB7v160006ISG_vEEmRKSG_, symObjAddr: 0x6F94, symBinAddr: 0x10000A824, symSize: 0x24 }
  - { offsetInCU: 0x12044, offset: 0x12044, size: 0x8, addend: 0x0, symName: __ZNKSt3__19allocatorIPNS_16__hash_node_baseIPNS_11__hash_nodeINS_17__hash_value_typeIiNS_12basic_stringIcNS_11char_traitsIcEENS0_IcEEEEEEPvEEEEE8max_sizeB7v160006Ev, symObjAddr: 0x6FB8, symBinAddr: 0x10000A848, symSize: 0x14 }
  - { offsetInCU: 0x12074, offset: 0x12074, size: 0x8, addend: 0x0, symName: __ZNKSt3__16__lessImmEclB7v160006ERKmS3_, symObjAddr: 0x703C, symBinAddr: 0x10000A8CC, symSize: 0x34 }
  - { offsetInCU: 0x120B6, offset: 0x120B6, size: 0x8, addend: 0x0, symName: __ZNKSt3__117__compressed_pairIPNS_11__hash_nodeINS_17__hash_value_typeIiNS_12basic_stringIcNS_11char_traitsIcEENS_9allocatorIcEEEEEEPvEENS_22__hash_node_destructorINS6_ISB_EEEEE5firstB7v160006Ev, symObjAddr: 0x7070, symBinAddr: 0x10000A900, symSize: 0x24 }
  - { offsetInCU: 0x120DC, offset: 0x120DC, size: 0x8, addend: 0x0, symName: __ZNKSt3__122__compressed_pair_elemIPNS_11__hash_nodeINS_17__hash_value_typeIiNS_12basic_stringIcNS_11char_traitsIcEENS_9allocatorIcEEEEEEPvEELi0ELb0EE5__getB7v160006Ev, symObjAddr: 0x7094, symBinAddr: 0x10000A924, symSize: 0x14 }
  - { offsetInCU: 0x12102, offset: 0x12102, size: 0x8, addend: 0x0, symName: __ZNSt3__117__compressed_pairIPNS_11__hash_nodeINS_17__hash_value_typeIiNS_12basic_stringIcNS_11char_traitsIcEENS_9allocatorIcEEEEEEPvEENS_22__hash_node_destructorINS6_ISB_EEEEE5firstB7v160006Ev, symObjAddr: 0x70A8, symBinAddr: 0x10000A938, symSize: 0x24 }
  - { offsetInCU: 0x12128, offset: 0x12128, size: 0x8, addend: 0x0, symName: __ZNSt3__122__compressed_pair_elemIPNS_11__hash_nodeINS_17__hash_value_typeIiNS_12basic_stringIcNS_11char_traitsIcEENS_9allocatorIcEEEEEEPvEELi0ELb0EE5__getB7v160006Ev, symObjAddr: 0x70CC, symBinAddr: 0x10000A95C, symSize: 0x14 }
  - { offsetInCU: 0x1214E, offset: 0x1214E, size: 0x8, addend: 0x0, symName: __ZNSt3__110unique_ptrINS_11__hash_nodeINS_17__hash_value_typeIiNS_12basic_stringIcNS_11char_traitsIcEENS_9allocatorIcEEEEEEPvEENS_22__hash_node_destructorINS6_ISB_EEEEED2B7v160006Ev, symObjAddr: 0x70E0, symBinAddr: 0x10000A970, symSize: 0x30 }
  - { offsetInCU: 0x12178, offset: 0x12178, size: 0x8, addend: 0x0, symName: __ZNSt3__110unique_ptrINS_11__hash_nodeINS_17__hash_value_typeIiNS_12basic_stringIcNS_11char_traitsIcEENS_9allocatorIcEEEEEEPvEENS_22__hash_node_destructorINS6_ISB_EEEEE5resetB7v160006EPSB_, symObjAddr: 0x7110, symBinAddr: 0x10000A9A0, symSize: 0x78 }
  - { offsetInCU: 0x121BC, offset: 0x121BC, size: 0x8, addend: 0x0, symName: __ZNSt3__122__hash_node_destructorINS_9allocatorINS_11__hash_nodeINS_17__hash_value_typeIiNS_12basic_stringIcNS_11char_traitsIcEENS1_IcEEEEEEPvEEEEEclB7v160006EPSB_, symObjAddr: 0x7188, symBinAddr: 0x10000AA18, symSize: 0x94 }
  - { offsetInCU: 0x121F1, offset: 0x121F1, size: 0x8, addend: 0x0, symName: __ZNSt3__115__hash_iteratorIPNS_11__hash_nodeINS_17__hash_value_typeIiNS_12basic_stringIcNS_11char_traitsIcEENS_9allocatorIcEEEEEEPvEEEC2B7v160006EPNS_16__hash_node_baseISC_EEPKv, symObjAddr: 0x721C, symBinAddr: 0x10000AAAC, symSize: 0x24 }
  - { offsetInCU: 0x12239, offset: 0x12239, size: 0x8, addend: 0x0, symName: __ZNSt3__14pairINS_15__hash_iteratorIPNS_11__hash_nodeINS_17__hash_value_typeIiNS_12basic_stringIcNS_11char_traitsIcEENS_9allocatorIcEEEEEEPvEEEEbEC2B7v160006ISE_RbLSB_0EEEOT_OT0_, symObjAddr: 0x7240, symBinAddr: 0x10000AAD0, symSize: 0x38 }
  - { offsetInCU: 0x12297, offset: 0x12297, size: 0x8, addend: 0x0, symName: __ZNSt3__15tupleIJOiEEC1B7v160006IJiELi0EEEDpOT_, symObjAddr: 0x7278, symBinAddr: 0x10000AB08, symSize: 0x34 }
  - { offsetInCU: 0x122E1, offset: 0x122E1, size: 0x8, addend: 0x0, symName: __ZNSt3__15tupleIJOiEEC2B7v160006IJiELi0EEEDpOT_, symObjAddr: 0x72AC, symBinAddr: 0x10000AB3C, symSize: 0x34 }
  - { offsetInCU: 0x1232B, offset: 0x1232B, size: 0x8, addend: 0x0, symName: __ZNSt3__112__tuple_implINS_15__tuple_indicesIJLm0EEEEJOiEEC1B7v160006IJLm0EEJS3_EJEJEJiEEENS1_IJXspT_EEEENS_13__tuple_typesIJDpT0_EEENS1_IJXspT1_EEEENS7_IJDpT2_EEEDpOT3_, symObjAddr: 0x72E0, symBinAddr: 0x10000AB70, symSize: 0x34 }
  - { offsetInCU: 0x123C0, offset: 0x123C0, size: 0x8, addend: 0x0, symName: __ZNSt3__112__tuple_implINS_15__tuple_indicesIJLm0EEEEJOiEEC2B7v160006IJLm0EEJS3_EJEJEJiEEENS1_IJXspT_EEEENS_13__tuple_typesIJDpT0_EEENS1_IJXspT1_EEEENS7_IJDpT2_EEEDpOT3_, symObjAddr: 0x7314, symBinAddr: 0x10000ABA4, symSize: 0x34 }
  - { offsetInCU: 0x12455, offset: 0x12455, size: 0x8, addend: 0x0, symName: __ZNSt3__112__tuple_leafILm0EOiLb0EEC2B7v160006IivEEOT_, symObjAddr: 0x7348, symBinAddr: 0x10000ABD8, symSize: 0x20 }
  - { offsetInCU: 0x12498, offset: 0x12498, size: 0x8, addend: 0x0, symName: __ZNSt3__114pointer_traitsIPNS_17__hash_value_typeIiNS_12basic_stringIcNS_11char_traitsIcEENS_9allocatorIcEEEEEEE10pointer_toB7v160006ERS8_, symObjAddr: 0x7368, symBinAddr: 0x10000ABF8, symSize: 0x14 }
  - { offsetInCU: 0x124BB, offset: 0x124BB, size: 0x8, addend: 0x0, symName: __ZNSt3__112__hash_tableINS_17__hash_value_typeIiNS_12basic_stringIcNS_11char_traitsIcEENS_9allocatorIcEEEEEENS_22__unordered_map_hasherIiS8_NS_4hashIiEENS_8equal_toIiEELb1EEENS_21__unordered_map_equalIiS8_SD_SB_Lb1EEENS5_IS8_EEE5beginEv, symObjAddr: 0x737C, symBinAddr: 0x10000AC0C, symSize: 0x40 }
  - { offsetInCU: 0x124E3, offset: 0x124E3, size: 0x8, addend: 0x0, symName: __ZNSt3__119__hash_map_iteratorINS_15__hash_iteratorIPNS_11__hash_nodeINS_17__hash_value_typeIiNS_12basic_stringIcNS_11char_traitsIcEENS_9allocatorIcEEEEEEPvEEEEEC1B7v160006ESE_, symObjAddr: 0x73BC, symBinAddr: 0x10000AC4C, symSize: 0x34 }
  - { offsetInCU: 0x1251C, offset: 0x1251C, size: 0x8, addend: 0x0, symName: __ZNSt3__119__hash_map_iteratorINS_15__hash_iteratorIPNS_11__hash_nodeINS_17__hash_value_typeIiNS_12basic_stringIcNS_11char_traitsIcEENS_9allocatorIcEEEEEEPvEEEEEC2B7v160006ESE_, symObjAddr: 0x73F0, symBinAddr: 0x10000AC80, symSize: 0x20 }
  - { offsetInCU: 0x12555, offset: 0x12555, size: 0x8, addend: 0x0, symName: __ZNSt3__112__hash_tableINS_17__hash_value_typeIiNS_12basic_stringIcNS_11char_traitsIcEENS_9allocatorIcEEEEEENS_22__unordered_map_hasherIiS8_NS_4hashIiEENS_8equal_toIiEELb1EEENS_21__unordered_map_equalIiS8_SD_SB_Lb1EEENS5_IS8_EEE3endEv, symObjAddr: 0x7410, symBinAddr: 0x10000ACA0, symSize: 0x30 }
  - { offsetInCU: 0x1257D, offset: 0x1257D, size: 0x8, addend: 0x0, symName: __ZNSt3__115__hash_iteratorIPNS_11__hash_nodeINS_17__hash_value_typeIiNS_12basic_stringIcNS_11char_traitsIcEENS_9allocatorIcEEEEEEPvEEEppB7v160006Ev, symObjAddr: 0x74A4, symBinAddr: 0x10000AD34, symSize: 0x20 }
  - { offsetInCU: 0x125A3, offset: 0x125A3, size: 0x8, addend: 0x0, symName: __ZNKSt3__112basic_stringIcNS_11char_traitsIcEENS_9allocatorIcEEE4sizeB7v160006Ev, symObjAddr: 0x74C4, symBinAddr: 0x10000AD54, symSize: 0x54 }
  - { offsetInCU: 0x125C9, offset: 0x125C9, size: 0x8, addend: 0x0, symName: __ZNKSt3__112basic_stringIcNS_11char_traitsIcEENS_9allocatorIcEEE15__get_long_sizeB7v160006Ev, symObjAddr: 0x7518, symBinAddr: 0x10000ADA8, symSize: 0x28 }
  - { offsetInCU: 0x125EF, offset: 0x125EF, size: 0x8, addend: 0x0, symName: __ZNKSt3__112basic_stringIcNS_11char_traitsIcEENS_9allocatorIcEEE16__get_short_sizeB7v160006Ev, symObjAddr: 0x7540, symBinAddr: 0x10000ADD0, symSize: 0x34 }
  - { offsetInCU: 0x12615, offset: 0x12615, size: 0x8, addend: 0x0, symName: __ZNSt3__112__hash_tableINS_17__hash_value_typeIiNS_12basic_stringIcNS_11char_traitsIcEENS_9allocatorIcEEEEEENS_22__unordered_map_hasherIiS8_NS_4hashIiEENS_8equal_toIiEELb1EEENS_21__unordered_map_equalIiS8_SD_SB_Lb1EEENS5_IS8_EEE4findIiEENS_15__hash_iteratorIPNS_11__hash_nodeIS8_PvEEEERKT_, symObjAddr: 0x7574, symBinAddr: 0x10000AE04, symSize: 0x1B4 }
  - { offsetInCU: 0x126A0, offset: 0x126A0, size: 0x8, addend: 0x0, symName: __ZNSt3__114pointer_traitsIPNS_4pairIKiNS_12basic_stringIcNS_11char_traitsIcEENS_9allocatorIcEEEEEEE10pointer_toB7v160006ERS9_, symObjAddr: 0x7728, symBinAddr: 0x10000AFB8, symSize: 0x14 }
  - { offsetInCU: 0x126C3, offset: 0x126C3, size: 0x8, addend: 0x0, symName: __ZNSt3__112__hash_tableINS_17__hash_value_typeIiNS_12basic_stringIcNS_11char_traitsIcEENS_9allocatorIcEEEEEENS_22__unordered_map_hasherIiS8_NS_4hashIiEENS_8equal_toIiEELb1EEENS_21__unordered_map_equalIiS8_SD_SB_Lb1EEENS5_IS8_EEE5eraseENS_21__hash_const_iteratorIPNS_11__hash_nodeIS8_PvEEEE, symObjAddr: 0x773C, symBinAddr: 0x10000AFCC, symSize: 0x70 }
  - { offsetInCU: 0x12718, offset: 0x12718, size: 0x8, addend: 0x0, symName: __ZNSt3__121__hash_const_iteratorIPNS_11__hash_nodeINS_17__hash_value_typeIiNS_12basic_stringIcNS_11char_traitsIcEENS_9allocatorIcEEEEEEPvEEEC1B7v160006ERKNS_15__hash_iteratorISC_EE, symObjAddr: 0x77AC, symBinAddr: 0x10000B03C, symSize: 0x34 }
  - { offsetInCU: 0x12751, offset: 0x12751, size: 0x8, addend: 0x0, symName: __ZNSt3__112__hash_tableINS_17__hash_value_typeIiNS_12basic_stringIcNS_11char_traitsIcEENS_9allocatorIcEEEEEENS_22__unordered_map_hasherIiS8_NS_4hashIiEENS_8equal_toIiEELb1EEENS_21__unordered_map_equalIiS8_SD_SB_Lb1EEENS5_IS8_EEE6removeENS_21__hash_const_iteratorIPNS_11__hash_nodeIS8_PvEEEE, symObjAddr: 0x77E0, symBinAddr: 0x10000B070, symSize: 0x220 }
  - { offsetInCU: 0x127E3, offset: 0x127E3, size: 0x8, addend: 0x0, symName: __ZNSt3__121__hash_const_iteratorIPNS_11__hash_nodeINS_17__hash_value_typeIiNS_12basic_stringIcNS_11char_traitsIcEENS_9allocatorIcEEEEEEPvEEEC2B7v160006ERKNS_15__hash_iteratorISC_EE, symObjAddr: 0x7A00, symBinAddr: 0x10000B290, symSize: 0x24 }
  - { offsetInCU: 0x1281C, offset: 0x1281C, size: 0x8, addend: 0x0, symName: __ZNSt3__116allocator_traitsINS_9allocatorINS_11__list_nodeIiPvEEEEE9constructB7v160006IiJRKiEvEEvRS5_PT_DpOT0_, symObjAddr: 0x7A24, symBinAddr: 0x10000B2B4, symSize: 0x34 }
  - { offsetInCU: 0x12873, offset: 0x12873, size: 0x8, addend: 0x0, symName: __ZNSt3__14listIiNS_9allocatorIiEEE20__link_nodes_at_backEPNS_16__list_node_baseIiPvEES7_, symObjAddr: 0x7A58, symBinAddr: 0x10000B2E8, symSize: 0x60 }
  - { offsetInCU: 0x128B9, offset: 0x128B9, size: 0x8, addend: 0x0, symName: __ZNSt3__19allocatorINS_11__list_nodeIiPvEEE9constructB7v160006IiJRKiEEEvPT_DpOT0_, symObjAddr: 0x7AB8, symBinAddr: 0x10000B348, symSize: 0x28 }
...
